Archive member included to satisfy reference by file (symbol)

c:/arm_tool/gcc/bin/../lib/gcc/arm-none-eabi/8.2.1/../../../../arm-none-eabi/lib/thumb/v7e-m+dp/hard\libc_nano.a(lib_a-exit.o)
                              c:/arm_tool/gcc/bin/../lib/gcc/arm-none-eabi/8.2.1/../../../../arm-none-eabi/lib/thumb/v7e-m+dp/hard/crt0.o (exit)
c:/arm_tool/gcc/bin/../lib/gcc/arm-none-eabi/8.2.1/../../../../arm-none-eabi/lib/thumb/v7e-m+dp/hard\libc_nano.a(lib_a-impure.o)
                              c:/arm_tool/gcc/bin/../lib/gcc/arm-none-eabi/8.2.1/../../../../arm-none-eabi/lib/thumb/v7e-m+dp/hard\libc_nano.a(lib_a-exit.o) (_global_impure_ptr)
c:/arm_tool/gcc/bin/../lib/gcc/arm-none-eabi/8.2.1/../../../../arm-none-eabi/lib/thumb/v7e-m+dp/hard\libc_nano.a(lib_a-init.o)
                              c:/arm_tool/gcc/bin/../lib/gcc/arm-none-eabi/8.2.1/../../../../arm-none-eabi/lib/thumb/v7e-m+dp/hard/crt0.o (__libc_init_array)
c:/arm_tool/gcc/bin/../lib/gcc/arm-none-eabi/8.2.1/../../../../arm-none-eabi/lib/thumb/v7e-m+dp/hard\libc_nano.a(lib_a-memset.o)
                              c:/arm_tool/gcc/bin/../lib/gcc/arm-none-eabi/8.2.1/../../../../arm-none-eabi/lib/thumb/v7e-m+dp/hard/crt0.o (memset)
c:/arm_tool/gcc/bin/../lib/gcc/arm-none-eabi/8.2.1/../../../../arm-none-eabi/lib/thumb/v7e-m+dp/hard\libc_nano.a(lib_a-nano-vfprintf_float.o)
                              (_printf_float)
c:/arm_tool/gcc/bin/../lib/gcc/arm-none-eabi/8.2.1/../../../../arm-none-eabi/lib/thumb/v7e-m+dp/hard\libc_nano.a(lib_a-nano-vfprintf_i.o)
                              c:/arm_tool/gcc/bin/../lib/gcc/arm-none-eabi/8.2.1/../../../../arm-none-eabi/lib/thumb/v7e-m+dp/hard\libc_nano.a(lib_a-nano-vfprintf_float.o) (_printf_common)
c:/arm_tool/gcc/bin/../lib/gcc/arm-none-eabi/8.2.1/../../../../arm-none-eabi/lib/thumb/v7e-m+dp/hard\libc_nano.a(lib_a-printf.o)
                              build/main.o (printf)
c:/arm_tool/gcc/bin/../lib/gcc/arm-none-eabi/8.2.1/../../../../arm-none-eabi/lib/thumb/v7e-m+dp/hard\libc_nano.a(lib_a-putchar.o)
                              build/terminal_graphics.o (putchar)
c:/arm_tool/gcc/bin/../lib/gcc/arm-none-eabi/8.2.1/../../../../arm-none-eabi/lib/thumb/v7e-m+dp/hard\libc_nano.a(lib_a-puts.o)
                              build/main.o (puts)
c:/arm_tool/gcc/bin/../lib/gcc/arm-none-eabi/8.2.1/../../../../arm-none-eabi/lib/thumb/v7e-m+dp/hard\libc_nano.a(lib_a-strcmp.o)
                              build/esq_seq.o (strcmp)
c:/arm_tool/gcc/bin/../lib/gcc/arm-none-eabi/8.2.1/../../../../arm-none-eabi/lib/thumb/v7e-m+dp/hard\libc_nano.a(lib_a-strlen.o)
                              c:/arm_tool/gcc/bin/../lib/gcc/arm-none-eabi/8.2.1/../../../../arm-none-eabi/lib/thumb/v7e-m+dp/hard\libc_nano.a(lib_a-nano-vfprintf_float.o) (strlen)
c:/arm_tool/gcc/bin/../lib/gcc/arm-none-eabi/8.2.1/../../../../arm-none-eabi/lib/thumb/v7e-m+dp/hard\libc_nano.a(lib_a-wbuf.o)
                              c:/arm_tool/gcc/bin/../lib/gcc/arm-none-eabi/8.2.1/../../../../arm-none-eabi/lib/thumb/v7e-m+dp/hard\libc_nano.a(lib_a-puts.o) (__swbuf_r)
c:/arm_tool/gcc/bin/../lib/gcc/arm-none-eabi/8.2.1/../../../../arm-none-eabi/lib/thumb/v7e-m+dp/hard\libc_nano.a(lib_a-wsetup.o)
                              c:/arm_tool/gcc/bin/../lib/gcc/arm-none-eabi/8.2.1/../../../../arm-none-eabi/lib/thumb/v7e-m+dp/hard\libc_nano.a(lib_a-puts.o) (__swsetup_r)
c:/arm_tool/gcc/bin/../lib/gcc/arm-none-eabi/8.2.1/../../../../arm-none-eabi/lib/thumb/v7e-m+dp/hard\libc_nano.a(lib_a-dtoa.o)
                              c:/arm_tool/gcc/bin/../lib/gcc/arm-none-eabi/8.2.1/../../../../arm-none-eabi/lib/thumb/v7e-m+dp/hard\libc_nano.a(lib_a-nano-vfprintf_float.o) (_dtoa_r)
c:/arm_tool/gcc/bin/../lib/gcc/arm-none-eabi/8.2.1/../../../../arm-none-eabi/lib/thumb/v7e-m+dp/hard\libc_nano.a(lib_a-fflush.o)
                              c:/arm_tool/gcc/bin/../lib/gcc/arm-none-eabi/8.2.1/../../../../arm-none-eabi/lib/thumb/v7e-m+dp/hard\libc_nano.a(lib_a-wbuf.o) (_fflush_r)
c:/arm_tool/gcc/bin/../lib/gcc/arm-none-eabi/8.2.1/../../../../arm-none-eabi/lib/thumb/v7e-m+dp/hard\libc_nano.a(lib_a-findfp.o)
                              c:/arm_tool/gcc/bin/../lib/gcc/arm-none-eabi/8.2.1/../../../../arm-none-eabi/lib/thumb/v7e-m+dp/hard\libc_nano.a(lib_a-printf.o) (__sinit)
c:/arm_tool/gcc/bin/../lib/gcc/arm-none-eabi/8.2.1/../../../../arm-none-eabi/lib/thumb/v7e-m+dp/hard\libc_nano.a(lib_a-fwalk.o)
                              c:/arm_tool/gcc/bin/../lib/gcc/arm-none-eabi/8.2.1/../../../../arm-none-eabi/lib/thumb/v7e-m+dp/hard\libc_nano.a(lib_a-findfp.o) (_fwalk)
c:/arm_tool/gcc/bin/../lib/gcc/arm-none-eabi/8.2.1/../../../../arm-none-eabi/lib/thumb/v7e-m+dp/hard\libc_nano.a(lib_a-localeconv.o)
                              c:/arm_tool/gcc/bin/../lib/gcc/arm-none-eabi/8.2.1/../../../../arm-none-eabi/lib/thumb/v7e-m+dp/hard\libc_nano.a(lib_a-nano-vfprintf_float.o) (_localeconv_r)
c:/arm_tool/gcc/bin/../lib/gcc/arm-none-eabi/8.2.1/../../../../arm-none-eabi/lib/thumb/v7e-m+dp/hard\libc_nano.a(lib_a-lock.o)
                              c:/arm_tool/gcc/bin/../lib/gcc/arm-none-eabi/8.2.1/../../../../arm-none-eabi/lib/thumb/v7e-m+dp/hard\libc_nano.a(lib_a-findfp.o) (__retarget_lock_init_recursive)
c:/arm_tool/gcc/bin/../lib/gcc/arm-none-eabi/8.2.1/../../../../arm-none-eabi/lib/thumb/v7e-m+dp/hard\libc_nano.a(lib_a-makebuf.o)
                              c:/arm_tool/gcc/bin/../lib/gcc/arm-none-eabi/8.2.1/../../../../arm-none-eabi/lib/thumb/v7e-m+dp/hard\libc_nano.a(lib_a-wsetup.o) (__smakebuf_r)
c:/arm_tool/gcc/bin/../lib/gcc/arm-none-eabi/8.2.1/../../../../arm-none-eabi/lib/thumb/v7e-m+dp/hard\libc_nano.a(lib_a-malloc.o)
                              c:/arm_tool/gcc/bin/../lib/gcc/arm-none-eabi/8.2.1/../../../../arm-none-eabi/lib/thumb/v7e-m+dp/hard\libc_nano.a(lib_a-dtoa.o) (malloc)
c:/arm_tool/gcc/bin/../lib/gcc/arm-none-eabi/8.2.1/../../../../arm-none-eabi/lib/thumb/v7e-m+dp/hard\libc_nano.a(lib_a-memchr.o)
                              c:/arm_tool/gcc/bin/../lib/gcc/arm-none-eabi/8.2.1/../../../../arm-none-eabi/lib/thumb/v7e-m+dp/hard\libc_nano.a(lib_a-nano-vfprintf_i.o) (memchr)
c:/arm_tool/gcc/bin/../lib/gcc/arm-none-eabi/8.2.1/../../../../arm-none-eabi/lib/thumb/v7e-m+dp/hard\libc_nano.a(lib_a-memcpy-stub.o)
                              c:/arm_tool/gcc/bin/../lib/gcc/arm-none-eabi/8.2.1/../../../../arm-none-eabi/lib/thumb/v7e-m+dp/hard\libc_nano.a(lib_a-dtoa.o) (memcpy)
c:/arm_tool/gcc/bin/../lib/gcc/arm-none-eabi/8.2.1/../../../../arm-none-eabi/lib/thumb/v7e-m+dp/hard\libc_nano.a(lib_a-mprec.o)
                              c:/arm_tool/gcc/bin/../lib/gcc/arm-none-eabi/8.2.1/../../../../arm-none-eabi/lib/thumb/v7e-m+dp/hard\libc_nano.a(lib_a-dtoa.o) (_Balloc)
c:/arm_tool/gcc/bin/../lib/gcc/arm-none-eabi/8.2.1/../../../../arm-none-eabi/lib/thumb/v7e-m+dp/hard\libc_nano.a(lib_a-nano-callocr.o)
                              c:/arm_tool/gcc/bin/../lib/gcc/arm-none-eabi/8.2.1/../../../../arm-none-eabi/lib/thumb/v7e-m+dp/hard\libc_nano.a(lib_a-mprec.o) (_calloc_r)
c:/arm_tool/gcc/bin/../lib/gcc/arm-none-eabi/8.2.1/../../../../arm-none-eabi/lib/thumb/v7e-m+dp/hard\libc_nano.a(lib_a-nano-freer.o)
                              c:/arm_tool/gcc/bin/../lib/gcc/arm-none-eabi/8.2.1/../../../../arm-none-eabi/lib/thumb/v7e-m+dp/hard\libc_nano.a(lib_a-wsetup.o) (_free_r)
c:/arm_tool/gcc/bin/../lib/gcc/arm-none-eabi/8.2.1/../../../../arm-none-eabi/lib/thumb/v7e-m+dp/hard\libc_nano.a(lib_a-nano-mallocr.o)
                              c:/arm_tool/gcc/bin/../lib/gcc/arm-none-eabi/8.2.1/../../../../arm-none-eabi/lib/thumb/v7e-m+dp/hard\libc_nano.a(lib_a-findfp.o) (_malloc_r)
c:/arm_tool/gcc/bin/../lib/gcc/arm-none-eabi/8.2.1/../../../../arm-none-eabi/lib/thumb/v7e-m+dp/hard\libc_nano.a(lib_a-nano-vfprintf.o)
                              c:/arm_tool/gcc/bin/../lib/gcc/arm-none-eabi/8.2.1/../../../../arm-none-eabi/lib/thumb/v7e-m+dp/hard\libc_nano.a(lib_a-printf.o) (_vfprintf_r)
c:/arm_tool/gcc/bin/../lib/gcc/arm-none-eabi/8.2.1/../../../../arm-none-eabi/lib/thumb/v7e-m+dp/hard\libc_nano.a(lib_a-putc.o)
                              c:/arm_tool/gcc/bin/../lib/gcc/arm-none-eabi/8.2.1/../../../../arm-none-eabi/lib/thumb/v7e-m+dp/hard\libc_nano.a(lib_a-putchar.o) (_putc_r)
c:/arm_tool/gcc/bin/../lib/gcc/arm-none-eabi/8.2.1/../../../../arm-none-eabi/lib/thumb/v7e-m+dp/hard\libc_nano.a(lib_a-sbrkr.o)
                              c:/arm_tool/gcc/bin/../lib/gcc/arm-none-eabi/8.2.1/../../../../arm-none-eabi/lib/thumb/v7e-m+dp/hard\libc_nano.a(lib_a-nano-mallocr.o) (_sbrk_r)
c:/arm_tool/gcc/bin/../lib/gcc/arm-none-eabi/8.2.1/../../../../arm-none-eabi/lib/thumb/v7e-m+dp/hard\libc_nano.a(lib_a-stdio.o)
                              c:/arm_tool/gcc/bin/../lib/gcc/arm-none-eabi/8.2.1/../../../../arm-none-eabi/lib/thumb/v7e-m+dp/hard\libc_nano.a(lib_a-findfp.o) (__sread)
c:/arm_tool/gcc/bin/../lib/gcc/arm-none-eabi/8.2.1/../../../../arm-none-eabi/lib/thumb/v7e-m+dp/hard\libc_nano.a(lib_a-writer.o)
                              c:/arm_tool/gcc/bin/../lib/gcc/arm-none-eabi/8.2.1/../../../../arm-none-eabi/lib/thumb/v7e-m+dp/hard\libc_nano.a(lib_a-stdio.o) (_write_r)
c:/arm_tool/gcc/bin/../lib/gcc/arm-none-eabi/8.2.1/../../../../arm-none-eabi/lib/thumb/v7e-m+dp/hard\libc_nano.a(lib_a-closer.o)
                              c:/arm_tool/gcc/bin/../lib/gcc/arm-none-eabi/8.2.1/../../../../arm-none-eabi/lib/thumb/v7e-m+dp/hard\libc_nano.a(lib_a-stdio.o) (_close_r)
c:/arm_tool/gcc/bin/../lib/gcc/arm-none-eabi/8.2.1/../../../../arm-none-eabi/lib/thumb/v7e-m+dp/hard\libc_nano.a(lib_a-fstatr.o)
                              c:/arm_tool/gcc/bin/../lib/gcc/arm-none-eabi/8.2.1/../../../../arm-none-eabi/lib/thumb/v7e-m+dp/hard\libc_nano.a(lib_a-makebuf.o) (_fstat_r)
c:/arm_tool/gcc/bin/../lib/gcc/arm-none-eabi/8.2.1/../../../../arm-none-eabi/lib/thumb/v7e-m+dp/hard\libc_nano.a(lib_a-fvwrite.o)
                              c:/arm_tool/gcc/bin/../lib/gcc/arm-none-eabi/8.2.1/../../../../arm-none-eabi/lib/thumb/v7e-m+dp/hard\libc_nano.a(lib_a-nano-vfprintf.o) (__sfvwrite_r)
c:/arm_tool/gcc/bin/../lib/gcc/arm-none-eabi/8.2.1/../../../../arm-none-eabi/lib/thumb/v7e-m+dp/hard\libc_nano.a(lib_a-isattyr.o)
                              c:/arm_tool/gcc/bin/../lib/gcc/arm-none-eabi/8.2.1/../../../../arm-none-eabi/lib/thumb/v7e-m+dp/hard\libc_nano.a(lib_a-makebuf.o) (_isatty_r)
c:/arm_tool/gcc/bin/../lib/gcc/arm-none-eabi/8.2.1/../../../../arm-none-eabi/lib/thumb/v7e-m+dp/hard\libc_nano.a(lib_a-locale.o)
                              c:/arm_tool/gcc/bin/../lib/gcc/arm-none-eabi/8.2.1/../../../../arm-none-eabi/lib/thumb/v7e-m+dp/hard\libc_nano.a(lib_a-localeconv.o) (__global_locale)
c:/arm_tool/gcc/bin/../lib/gcc/arm-none-eabi/8.2.1/../../../../arm-none-eabi/lib/thumb/v7e-m+dp/hard\libc_nano.a(lib_a-lseekr.o)
                              c:/arm_tool/gcc/bin/../lib/gcc/arm-none-eabi/8.2.1/../../../../arm-none-eabi/lib/thumb/v7e-m+dp/hard\libc_nano.a(lib_a-stdio.o) (_lseek_r)
c:/arm_tool/gcc/bin/../lib/gcc/arm-none-eabi/8.2.1/../../../../arm-none-eabi/lib/thumb/v7e-m+dp/hard\libc_nano.a(lib_a-mbtowc_r.o)
                              c:/arm_tool/gcc/bin/../lib/gcc/arm-none-eabi/8.2.1/../../../../arm-none-eabi/lib/thumb/v7e-m+dp/hard\libc_nano.a(lib_a-locale.o) (__ascii_mbtowc)
c:/arm_tool/gcc/bin/../lib/gcc/arm-none-eabi/8.2.1/../../../../arm-none-eabi/lib/thumb/v7e-m+dp/hard\libc_nano.a(lib_a-memmove.o)
                              c:/arm_tool/gcc/bin/../lib/gcc/arm-none-eabi/8.2.1/../../../../arm-none-eabi/lib/thumb/v7e-m+dp/hard\libc_nano.a(lib_a-fvwrite.o) (memmove)
c:/arm_tool/gcc/bin/../lib/gcc/arm-none-eabi/8.2.1/../../../../arm-none-eabi/lib/thumb/v7e-m+dp/hard\libc_nano.a(lib_a-mlock.o)
                              c:/arm_tool/gcc/bin/../lib/gcc/arm-none-eabi/8.2.1/../../../../arm-none-eabi/lib/thumb/v7e-m+dp/hard\libc_nano.a(lib_a-nano-freer.o) (__malloc_lock)
c:/arm_tool/gcc/bin/../lib/gcc/arm-none-eabi/8.2.1/../../../../arm-none-eabi/lib/thumb/v7e-m+dp/hard\libc_nano.a(lib_a-nano-reallocr.o)
                              c:/arm_tool/gcc/bin/../lib/gcc/arm-none-eabi/8.2.1/../../../../arm-none-eabi/lib/thumb/v7e-m+dp/hard\libc_nano.a(lib_a-fvwrite.o) (_realloc_r)
c:/arm_tool/gcc/bin/../lib/gcc/arm-none-eabi/8.2.1/../../../../arm-none-eabi/lib/thumb/v7e-m+dp/hard\libc_nano.a(lib_a-readr.o)
                              c:/arm_tool/gcc/bin/../lib/gcc/arm-none-eabi/8.2.1/../../../../arm-none-eabi/lib/thumb/v7e-m+dp/hard\libc_nano.a(lib_a-stdio.o) (_read_r)
c:/arm_tool/gcc/bin/../lib/gcc/arm-none-eabi/8.2.1/../../../../arm-none-eabi/lib/thumb/v7e-m+dp/hard\libc_nano.a(lib_a-reent.o)
                              c:/arm_tool/gcc/bin/../lib/gcc/arm-none-eabi/8.2.1/../../../../arm-none-eabi/lib/thumb/v7e-m+dp/hard\libc_nano.a(lib_a-sbrkr.o) (errno)
c:/arm_tool/gcc/bin/../lib/gcc/arm-none-eabi/8.2.1/../../../../arm-none-eabi/lib/thumb/v7e-m+dp/hard\libc_nano.a(lib_a-wctomb_r.o)
                              c:/arm_tool/gcc/bin/../lib/gcc/arm-none-eabi/8.2.1/../../../../arm-none-eabi/lib/thumb/v7e-m+dp/hard\libc_nano.a(lib_a-locale.o) (__ascii_wctomb)
c:/arm_tool/gcc/bin/../lib/gcc/arm-none-eabi/8.2.1/../../../../arm-none-eabi/lib/thumb/v7e-m+dp/hard\libc_nano.a(lib_a-ctype_.o)
                              c:/arm_tool/gcc/bin/../lib/gcc/arm-none-eabi/8.2.1/../../../../arm-none-eabi/lib/thumb/v7e-m+dp/hard\libc_nano.a(lib_a-locale.o) (_ctype_)
c:/arm_tool/gcc/bin/../lib/gcc/arm-none-eabi/8.2.1/../../../../arm-none-eabi/lib/thumb/v7e-m+dp/hard\libc_nano.a(lib_a-nano-msizer.o)
                              c:/arm_tool/gcc/bin/../lib/gcc/arm-none-eabi/8.2.1/../../../../arm-none-eabi/lib/thumb/v7e-m+dp/hard\libc_nano.a(lib_a-nano-reallocr.o) (_malloc_usable_size_r)
c:/arm_tool/gcc/bin/../lib/gcc/arm-none-eabi/8.2.1/../../../../arm-none-eabi/lib/thumb/v7e-m+dp/hard\libnosys.a(close.o)
                              c:/arm_tool/gcc/bin/../lib/gcc/arm-none-eabi/8.2.1/../../../../arm-none-eabi/lib/thumb/v7e-m+dp/hard\libc_nano.a(lib_a-closer.o) (_close)
c:/arm_tool/gcc/bin/../lib/gcc/arm-none-eabi/8.2.1/../../../../arm-none-eabi/lib/thumb/v7e-m+dp/hard\libnosys.a(fstat.o)
                              c:/arm_tool/gcc/bin/../lib/gcc/arm-none-eabi/8.2.1/../../../../arm-none-eabi/lib/thumb/v7e-m+dp/hard\libc_nano.a(lib_a-fstatr.o) (_fstat)
c:/arm_tool/gcc/bin/../lib/gcc/arm-none-eabi/8.2.1/../../../../arm-none-eabi/lib/thumb/v7e-m+dp/hard\libnosys.a(isatty.o)
                              c:/arm_tool/gcc/bin/../lib/gcc/arm-none-eabi/8.2.1/../../../../arm-none-eabi/lib/thumb/v7e-m+dp/hard\libc_nano.a(lib_a-isattyr.o) (_isatty)
c:/arm_tool/gcc/bin/../lib/gcc/arm-none-eabi/8.2.1/../../../../arm-none-eabi/lib/thumb/v7e-m+dp/hard\libnosys.a(lseek.o)
                              c:/arm_tool/gcc/bin/../lib/gcc/arm-none-eabi/8.2.1/../../../../arm-none-eabi/lib/thumb/v7e-m+dp/hard\libc_nano.a(lib_a-lseekr.o) (_lseek)
c:/arm_tool/gcc/bin/../lib/gcc/arm-none-eabi/8.2.1/../../../../arm-none-eabi/lib/thumb/v7e-m+dp/hard\libnosys.a(read.o)
                              c:/arm_tool/gcc/bin/../lib/gcc/arm-none-eabi/8.2.1/../../../../arm-none-eabi/lib/thumb/v7e-m+dp/hard\libc_nano.a(lib_a-readr.o) (_read)
c:/arm_tool/gcc/bin/../lib/gcc/arm-none-eabi/8.2.1/../../../../arm-none-eabi/lib/thumb/v7e-m+dp/hard\libnosys.a(sbrk.o)
                              c:/arm_tool/gcc/bin/../lib/gcc/arm-none-eabi/8.2.1/../../../../arm-none-eabi/lib/thumb/v7e-m+dp/hard\libc_nano.a(lib_a-sbrkr.o) (_sbrk)
c:/arm_tool/gcc/bin/../lib/gcc/arm-none-eabi/8.2.1/../../../../arm-none-eabi/lib/thumb/v7e-m+dp/hard\libnosys.a(_exit.o)
                              c:/arm_tool/gcc/bin/../lib/gcc/arm-none-eabi/8.2.1/../../../../arm-none-eabi/lib/thumb/v7e-m+dp/hard\libc_nano.a(lib_a-exit.o) (_exit)
c:/arm_tool/gcc/bin/../lib/gcc/arm-none-eabi/8.2.1/thumb/v7e-m+dp/hard\libgcc.a(_aeabi_ldivmod.o)
                              build/stm32h7xx_hal_uart.o (__aeabi_ldivmod)
c:/arm_tool/gcc/bin/../lib/gcc/arm-none-eabi/8.2.1/thumb/v7e-m+dp/hard\libgcc.a(_aeabi_uldivmod.o)
                              build/stm32h7xx_hal_uart.o (__aeabi_uldivmod)
c:/arm_tool/gcc/bin/../lib/gcc/arm-none-eabi/8.2.1/thumb/v7e-m+dp/hard\libgcc.a(_udivmoddi4.o)
                              c:/arm_tool/gcc/bin/../lib/gcc/arm-none-eabi/8.2.1/thumb/v7e-m+dp/hard\libgcc.a(_aeabi_ldivmod.o) (__udivmoddi4)
c:/arm_tool/gcc/bin/../lib/gcc/arm-none-eabi/8.2.1/thumb/v7e-m+dp/hard\libgcc.a(_dvmd_tls.o)
                              c:/arm_tool/gcc/bin/../lib/gcc/arm-none-eabi/8.2.1/thumb/v7e-m+dp/hard\libgcc.a(_aeabi_ldivmod.o) (__aeabi_ldiv0)

Allocating common symbols
Common symbol       size              file

pix_i               0x1               build/main.o
hUsbDeviceFS        0x2d0             build/usb_device.o
__lock___atexit_recursive_mutex
                    0x1               c:/arm_tool/gcc/bin/../lib/gcc/arm-none-eabi/8.2.1/../../../../arm-none-eabi/lib/thumb/v7e-m+dp/hard\libc_nano.a(lib_a-lock.o)
UserRxBufferHS      0x800             build/usbd_cdc_if.o
__lock___arc4random_mutex
                    0x1               c:/arm_tool/gcc/bin/../lib/gcc/arm-none-eabi/8.2.1/../../../../arm-none-eabi/lib/thumb/v7e-m+dp/hard\libc_nano.a(lib_a-lock.o)
errno               0x4               c:/arm_tool/gcc/bin/../lib/gcc/arm-none-eabi/8.2.1/../../../../arm-none-eabi/lib/thumb/v7e-m+dp/hard\libc_nano.a(lib_a-reent.o)
hdma_usart3_rx      0x78              build/usart.o
huart3              0x90              build/usart.o
hpcd_USB_OTG_HS     0x408             build/usbd_conf.o
hpcd_USB_OTG_FS     0x408             build/usbd_conf.o
bluetooth           0x3               build/radio_button.o
hdma_dcmi           0x78              build/dcmi.o
huvc                0x4               build/usbd_uvc.o
buff                0x1               build/terminal_graphics.o
pix_g               0x2               build/main.o
uwTick              0x4               build/stm32h7xx_hal.o
hdma_usart3_tx      0x78              build/usart.o
pFlash              0x1c              build/stm32h7xx_hal_flash.o
uvc_wait_flag       0x1               build/main.o
__lock___env_recursive_mutex
                    0x1               c:/arm_tool/gcc/bin/../lib/gcc/arm-none-eabi/8.2.1/../../../../arm-none-eabi/lib/thumb/v7e-m+dp/hard\libc_nano.a(lib_a-lock.o)
__lock___sinit_recursive_mutex
                    0x1               c:/arm_tool/gcc/bin/../lib/gcc/arm-none-eabi/8.2.1/../../../../arm-none-eabi/lib/thumb/v7e-m+dp/hard\libc_nano.a(lib_a-lock.o)
UserRxBufferFS      0x800             build/usbd_cdc_if.o
hUsbDeviceHS        0x2d0             build/usb_device.o
__lock___malloc_recursive_mutex
                    0x1               c:/arm_tool/gcc/bin/../lib/gcc/arm-none-eabi/8.2.1/../../../../arm-none-eabi/lib/thumb/v7e-m+dp/hard\libc_nano.a(lib_a-lock.o)
reboot              0x3               build/radio_button.o
hdcmi               0x50              build/dcmi.o
cursor              0x4               build/cursor.o
UserTxBufferFS      0x800             build/usbd_cdc_if.o
pix_r               0x2               build/main.o
USBD_UVC_StrDesc    0x200             build/usbd_uvc.o
prev                0x3               build/radio_button.o
hrng                0x14              build/rng.o
UserTxBufferHS      0x800             build/usbd_cdc_if.o
radbtn_led          0x3               build/radio_button.o
next                0x3               build/radio_button.o
pix_b               0x2               build/main.o
__lock___at_quick_exit_mutex
                    0x1               c:/arm_tool/gcc/bin/../lib/gcc/arm-none-eabi/8.2.1/../../../../arm-none-eabi/lib/thumb/v7e-m+dp/hard\libc_nano.a(lib_a-lock.o)
USBD_StrDesc        0x200             build/usbd_desc.o
__lock___dd_hash_mutex
                    0x1               c:/arm_tool/gcc/bin/../lib/gcc/arm-none-eabi/8.2.1/../../../../arm-none-eabi/lib/thumb/v7e-m+dp/hard\libc_nano.a(lib_a-lock.o)
__lock___tz_mutex   0x1               c:/arm_tool/gcc/bin/../lib/gcc/arm-none-eabi/8.2.1/../../../../arm-none-eabi/lib/thumb/v7e-m+dp/hard\libc_nano.a(lib_a-lock.o)
__lock___sfp_recursive_mutex
                    0x1               c:/arm_tool/gcc/bin/../lib/gcc/arm-none-eabi/8.2.1/../../../../arm-none-eabi/lib/thumb/v7e-m+dp/hard\libc_nano.a(lib_a-lock.o)
label_debug         0xe               build/radio_button.o

Discarded input sections

 .text          0x0000000000000000        0x0 c:/arm_tool/gcc/bin/../lib/gcc/arm-none-eabi/8.2.1/thumb/v7e-m+dp/hard/crti.o
 .data          0x0000000000000000        0x0 c:/arm_tool/gcc/bin/../lib/gcc/arm-none-eabi/8.2.1/thumb/v7e-m+dp/hard/crti.o
 .bss           0x0000000000000000        0x0 c:/arm_tool/gcc/bin/../lib/gcc/arm-none-eabi/8.2.1/thumb/v7e-m+dp/hard/crti.o
 .text          0x0000000000000000        0x0 c:/arm_tool/gcc/bin/../lib/gcc/arm-none-eabi/8.2.1/thumb/v7e-m+dp/hard/crtbegin.o
 .data          0x0000000000000000        0x0 c:/arm_tool/gcc/bin/../lib/gcc/arm-none-eabi/8.2.1/thumb/v7e-m+dp/hard/crtbegin.o
 .bss           0x0000000000000000        0x0 c:/arm_tool/gcc/bin/../lib/gcc/arm-none-eabi/8.2.1/thumb/v7e-m+dp/hard/crtbegin.o
 .data.__dso_handle
                0x0000000000000000        0x4 c:/arm_tool/gcc/bin/../lib/gcc/arm-none-eabi/8.2.1/thumb/v7e-m+dp/hard/crtbegin.o
 .text          0x0000000000000000       0x74 c:/arm_tool/gcc/bin/../lib/gcc/arm-none-eabi/8.2.1/../../../../arm-none-eabi/lib/thumb/v7e-m+dp/hard/crt0.o
 .data          0x0000000000000000        0x0 c:/arm_tool/gcc/bin/../lib/gcc/arm-none-eabi/8.2.1/../../../../arm-none-eabi/lib/thumb/v7e-m+dp/hard/crt0.o
 .bss           0x0000000000000000        0x0 c:/arm_tool/gcc/bin/../lib/gcc/arm-none-eabi/8.2.1/../../../../arm-none-eabi/lib/thumb/v7e-m+dp/hard/crt0.o
 .ARM.extab     0x0000000000000000        0x0 c:/arm_tool/gcc/bin/../lib/gcc/arm-none-eabi/8.2.1/../../../../arm-none-eabi/lib/thumb/v7e-m+dp/hard/crt0.o
 .ARM.exidx     0x0000000000000000        0x8 c:/arm_tool/gcc/bin/../lib/gcc/arm-none-eabi/8.2.1/../../../../arm-none-eabi/lib/thumb/v7e-m+dp/hard/crt0.o
 .ARM.attributes
                0x0000000000000000       0x1c c:/arm_tool/gcc/bin/../lib/gcc/arm-none-eabi/8.2.1/../../../../arm-none-eabi/lib/thumb/v7e-m+dp/hard/crt0.o
 .text          0x0000000000000000        0x0 build/main.o
 .data          0x0000000000000000        0x0 build/main.o
 .bss           0x0000000000000000        0x0 build/main.o
 .text.zx_copy_pix
                0x0000000000000000       0x6c build/main.o
 .text          0x0000000000000000        0x0 build/gpio.o
 .data          0x0000000000000000        0x0 build/gpio.o
 .bss           0x0000000000000000        0x0 build/gpio.o
 .text          0x0000000000000000        0x0 build/usart.o
 .data          0x0000000000000000        0x0 build/usart.o
 .bss           0x0000000000000000        0x0 build/usart.o
 .text.HAL_UART_MspDeInit
                0x0000000000000000       0x48 build/usart.o
 .text          0x0000000000000000        0x0 build/stm32h7xx_it.o
 .data          0x0000000000000000        0x0 build/stm32h7xx_it.o
 .bss           0x0000000000000000        0x0 build/stm32h7xx_it.o
 .text          0x0000000000000000        0x0 build/stm32h7xx_hal_msp.o
 .data          0x0000000000000000        0x0 build/stm32h7xx_hal_msp.o
 .bss           0x0000000000000000        0x0 build/stm32h7xx_hal_msp.o
 .text          0x0000000000000000        0x0 build/usb_device.o
 .data          0x0000000000000000        0x0 build/usb_device.o
 .bss           0x0000000000000000        0x0 build/usb_device.o
 .text          0x0000000000000000        0x0 build/usbd_desc.o
 .data          0x0000000000000000        0x0 build/usbd_desc.o
 .bss           0x0000000000000000        0x0 build/usbd_desc.o
 .text          0x0000000000000000        0x0 build/usbd_cdc_if.o
 .data          0x0000000000000000        0x0 build/usbd_cdc_if.o
 .bss           0x0000000000000000        0x0 build/usbd_cdc_if.o
 .text.CDC_Receive_HS
                0x0000000000000000       0x1c build/usbd_cdc_if.o
 .text.CDC_Init_HS
                0x0000000000000000       0x28 build/usbd_cdc_if.o
 .text.CDC_TransmitCplt_HS
                0x0000000000000000        0x4 build/usbd_cdc_if.o
 .text.CDC_Control_HS
                0x0000000000000000        0x4 build/usbd_cdc_if.o
 .text.CDC_DeInit_HS
                0x0000000000000000        0x4 build/usbd_cdc_if.o
 .text.CDC_Transmit_FS
                0x0000000000000000       0x2c build/usbd_cdc_if.o
 .text.CDC_Transmit_HS
                0x0000000000000000       0x2c build/usbd_cdc_if.o
 .data.USBD_Interface_fops_HS
                0x0000000000000000       0x14 build/usbd_cdc_if.o
 .text          0x0000000000000000        0x0 build/usbd_conf.o
 .data          0x0000000000000000        0x0 build/usbd_conf.o
 .bss           0x0000000000000000        0x0 build/usbd_conf.o
 .text.HAL_PCD_MspDeInit
                0x0000000000000000       0x8c build/usbd_conf.o
 .text.USBD_LL_DeInit
                0x0000000000000000       0x1c build/usbd_conf.o
 .text.USBD_LL_Stop
                0x0000000000000000       0x1c build/usbd_conf.o
 .text.USBD_LL_FlushEP
                0x0000000000000000       0x1c build/usbd_conf.o
 .text.USBD_LL_Delay
                0x0000000000000000        0x4 build/usbd_conf.o
 .text.USBD_Get_USB_Status
                0x0000000000000000       0x14 build/usbd_conf.o
 .text          0x0000000000000000        0x0 build/stm32h7xx_hal_pcd.o
 .data          0x0000000000000000        0x0 build/stm32h7xx_hal_pcd.o
 .bss           0x0000000000000000        0x0 build/stm32h7xx_hal_pcd.o
 .text.HAL_PCD_MspInit
                0x0000000000000000        0x4 build/stm32h7xx_hal_pcd.o
 .text.HAL_PCD_MspDeInit
                0x0000000000000000        0x4 build/stm32h7xx_hal_pcd.o
 .text.HAL_PCD_DeInit
                0x0000000000000000       0x2c build/stm32h7xx_hal_pcd.o
 .text.HAL_PCD_Stop
                0x0000000000000000       0x4c build/stm32h7xx_hal_pcd.o
 .text.HAL_PCD_DataOutStageCallback
                0x0000000000000000        0x4 build/stm32h7xx_hal_pcd.o
 .text.HAL_PCD_DataInStageCallback
                0x0000000000000000        0x4 build/stm32h7xx_hal_pcd.o
 .text.HAL_PCD_SetupStageCallback
                0x0000000000000000        0x4 build/stm32h7xx_hal_pcd.o
 .text.HAL_PCD_SOFCallback
                0x0000000000000000        0x4 build/stm32h7xx_hal_pcd.o
 .text.HAL_PCD_ResetCallback
                0x0000000000000000        0x4 build/stm32h7xx_hal_pcd.o
 .text.HAL_PCD_SuspendCallback
                0x0000000000000000        0x4 build/stm32h7xx_hal_pcd.o
 .text.HAL_PCD_ResumeCallback
                0x0000000000000000        0x4 build/stm32h7xx_hal_pcd.o
 .text.HAL_PCD_ISOOUTIncompleteCallback
                0x0000000000000000        0x4 build/stm32h7xx_hal_pcd.o
 .text.HAL_PCD_ISOINIncompleteCallback
                0x0000000000000000        0x4 build/stm32h7xx_hal_pcd.o
 .text.HAL_PCD_ConnectCallback
                0x0000000000000000        0x4 build/stm32h7xx_hal_pcd.o
 .text.HAL_PCD_DisconnectCallback
                0x0000000000000000        0x4 build/stm32h7xx_hal_pcd.o
 .text.HAL_PCD_DevConnect
                0x0000000000000000       0x3c build/stm32h7xx_hal_pcd.o
 .text.HAL_PCD_DevDisconnect
                0x0000000000000000       0x3c build/stm32h7xx_hal_pcd.o
 .text.HAL_PCD_EP_Abort
                0x0000000000000000       0x20 build/stm32h7xx_hal_pcd.o
 .text.HAL_PCD_EP_Flush
                0x0000000000000000       0x38 build/stm32h7xx_hal_pcd.o
 .text.HAL_PCD_ActivateRemoteWakeup
                0x0000000000000000        0x8 build/stm32h7xx_hal_pcd.o
 .text.HAL_PCD_DeActivateRemoteWakeup
                0x0000000000000000        0x8 build/stm32h7xx_hal_pcd.o
 .text.HAL_PCD_GetState
                0x0000000000000000        0x8 build/stm32h7xx_hal_pcd.o
 .text.HAL_PCD_SetTestMode
                0x0000000000000000       0x18 build/stm32h7xx_hal_pcd.o
 .text          0x0000000000000000        0x0 build/stm32h7xx_hal_pcd_ex.o
 .data          0x0000000000000000        0x0 build/stm32h7xx_hal_pcd_ex.o
 .bss           0x0000000000000000        0x0 build/stm32h7xx_hal_pcd_ex.o
 .text.HAL_PCDEx_DeActivateLPM
                0x0000000000000000       0x28 build/stm32h7xx_hal_pcd_ex.o
 .text.HAL_PCDEx_ActivateBCD
                0x0000000000000000       0x34 build/stm32h7xx_hal_pcd_ex.o
 .text.HAL_PCDEx_DeActivateBCD
                0x0000000000000000       0x2c build/stm32h7xx_hal_pcd_ex.o
 .text.HAL_PCDEx_BCD_Callback
                0x0000000000000000        0x4 build/stm32h7xx_hal_pcd_ex.o
 .text.HAL_PCDEx_BCD_VBUSDetect
                0x0000000000000000       0xcc build/stm32h7xx_hal_pcd_ex.o
 .text          0x0000000000000000        0x0 build/stm32h7xx_ll_usb.o
 .data          0x0000000000000000        0x0 build/stm32h7xx_ll_usb.o
 .bss           0x0000000000000000        0x0 build/stm32h7xx_ll_usb.o
 .text.USB_SetDevSpeed
                0x0000000000000000       0x10 build/stm32h7xx_ll_usb.o
 .text.USB_ActivateDedicatedEndpoint
                0x0000000000000000       0x94 build/stm32h7xx_ll_usb.o
 .text.USB_DeactivateDedicatedEndpoint
                0x0000000000000000       0xa4 build/stm32h7xx_ll_usb.o
 .text.USB_EPStopXfer
                0x0000000000000000       0x90 build/stm32h7xx_ll_usb.o
 .text.USB_StopDevice
                0x0000000000000000       0x44 build/stm32h7xx_ll_usb.o
 .text.USB_ClearInterrupts
                0x0000000000000000        0x8 build/stm32h7xx_ll_usb.o
 .text.USB_HostInit
                0x0000000000000000       0xe0 build/stm32h7xx_ll_usb.o
 .text.USB_InitFSLSPClkSel
                0x0000000000000000       0x50 build/stm32h7xx_ll_usb.o
 .text.USB_ResetPort
                0x0000000000000000       0x40 build/stm32h7xx_ll_usb.o
 .text.USB_DriveVbus
                0x0000000000000000       0x50 build/stm32h7xx_ll_usb.o
 .text.USB_GetHostSpeed
                0x0000000000000000       0x18 build/stm32h7xx_ll_usb.o
 .text.USB_GetCurrentFrame
                0x0000000000000000        0xc build/stm32h7xx_ll_usb.o
 .text.USB_HC_Init
                0x0000000000000000      0x140 build/stm32h7xx_ll_usb.o
 .text.USB_HC_StartXfer
                0x0000000000000000      0x19c build/stm32h7xx_ll_usb.o
 .text.USB_HC_ReadInterrupt
                0x0000000000000000        0xc build/stm32h7xx_ll_usb.o
 .text.USB_HC_Halt
                0x0000000000000000       0xc0 build/stm32h7xx_ll_usb.o
 .text.USB_DoPing
                0x0000000000000000       0x24 build/stm32h7xx_ll_usb.o
 .text.USB_StopHost
                0x0000000000000000       0x84 build/stm32h7xx_ll_usb.o
 .text.USB_ActivateRemoteWakeup
                0x0000000000000000       0x18 build/stm32h7xx_ll_usb.o
 .text.USB_DeActivateRemoteWakeup
                0x0000000000000000       0x10 build/stm32h7xx_ll_usb.o
 .text          0x0000000000000000        0x0 build/stm32h7xx_hal_rcc.o
 .data          0x0000000000000000        0x0 build/stm32h7xx_hal_rcc.o
 .bss           0x0000000000000000        0x0 build/stm32h7xx_hal_rcc.o
 .text.HAL_RCC_DeInit
                0x0000000000000000      0x1a4 build/stm32h7xx_hal_rcc.o
 .text.HAL_RCC_EnableCSS
                0x0000000000000000       0x10 build/stm32h7xx_hal_rcc.o
 .text.HAL_RCC_DisableCSS
                0x0000000000000000       0x10 build/stm32h7xx_hal_rcc.o
 .text.HAL_RCC_GetOscConfig
                0x0000000000000000      0x100 build/stm32h7xx_hal_rcc.o
 .text.HAL_RCC_GetClockConfig
                0x0000000000000000       0x58 build/stm32h7xx_hal_rcc.o
 .text.HAL_RCC_CSSCallback
                0x0000000000000000        0x4 build/stm32h7xx_hal_rcc.o
 .text.HAL_RCC_NMI_IRQHandler
                0x0000000000000000       0x1c build/stm32h7xx_hal_rcc.o
 .text          0x0000000000000000        0x0 build/stm32h7xx_hal_rcc_ex.o
 .data          0x0000000000000000        0x0 build/stm32h7xx_hal_rcc_ex.o
 .bss           0x0000000000000000        0x0 build/stm32h7xx_hal_rcc_ex.o
 .text.HAL_RCCEx_GetPeriphCLKConfig
                0x0000000000000000      0x194 build/stm32h7xx_hal_rcc_ex.o
 .text.HAL_RCCEx_GetD1PCLK1Freq
                0x0000000000000000       0x24 build/stm32h7xx_hal_rcc_ex.o
 .text.HAL_RCCEx_GetPLL1ClockFreq
                0x0000000000000000      0x130 build/stm32h7xx_hal_rcc_ex.o
 .text.HAL_RCCEx_GetPeriphCLKFreq
                0x0000000000000000      0x368 build/stm32h7xx_hal_rcc_ex.o
 .text.HAL_RCCEx_GetD1SysClockFreq
                0x0000000000000000       0x44 build/stm32h7xx_hal_rcc_ex.o
 .text.HAL_RCCEx_EnableLSECSS
                0x0000000000000000       0x10 build/stm32h7xx_hal_rcc_ex.o
 .text.HAL_RCCEx_DisableLSECSS
                0x0000000000000000       0x18 build/stm32h7xx_hal_rcc_ex.o
 .text.HAL_RCCEx_EnableLSECSS_IT
                0x0000000000000000       0x30 build/stm32h7xx_hal_rcc_ex.o
 .text.HAL_RCCEx_WakeUpStopCLKConfig
                0x0000000000000000       0x14 build/stm32h7xx_hal_rcc_ex.o
 .text.HAL_RCCEx_KerWakeUpStopCLKConfig
                0x0000000000000000       0x14 build/stm32h7xx_hal_rcc_ex.o
 .text.HAL_RCCEx_WWDGxSysResetConfig
                0x0000000000000000       0x14 build/stm32h7xx_hal_rcc_ex.o
 .text.HAL_RCCEx_CRSConfig
                0x0000000000000000       0x70 build/stm32h7xx_hal_rcc_ex.o
 .text.HAL_RCCEx_CRSSoftwareSynchronizationGenerate
                0x0000000000000000       0x10 build/stm32h7xx_hal_rcc_ex.o
 .text.HAL_RCCEx_CRSGetSynchronizationInfo
                0x0000000000000000       0x24 build/stm32h7xx_hal_rcc_ex.o
 .text.HAL_RCCEx_CRSWaitSynchronization
                0x0000000000000000       0x98 build/stm32h7xx_hal_rcc_ex.o
 .text.HAL_RCCEx_CRS_SyncOkCallback
                0x0000000000000000        0x4 build/stm32h7xx_hal_rcc_ex.o
 .text.HAL_RCCEx_CRS_SyncWarnCallback
                0x0000000000000000        0x4 build/stm32h7xx_hal_rcc_ex.o
 .text.HAL_RCCEx_CRS_ExpectedSyncCallback
                0x0000000000000000        0x4 build/stm32h7xx_hal_rcc_ex.o
 .text.HAL_RCCEx_CRS_ErrorCallback
                0x0000000000000000        0x4 build/stm32h7xx_hal_rcc_ex.o
 .text.HAL_RCCEx_CRS_IRQHandler
                0x0000000000000000       0x7c build/stm32h7xx_hal_rcc_ex.o
 .text.HAL_RCCEx_LSECSS_Callback
                0x0000000000000000        0x4 build/stm32h7xx_hal_rcc_ex.o
 .text.HAL_RCCEx_LSECSS_IRQHandler
                0x0000000000000000       0x1c build/stm32h7xx_hal_rcc_ex.o
 .text          0x0000000000000000        0x0 build/stm32h7xx_hal_flash.o
 .data          0x0000000000000000        0x0 build/stm32h7xx_hal_flash.o
 .bss           0x0000000000000000        0x0 build/stm32h7xx_hal_flash.o
 .text.HAL_FLASH_EndOfOperationCallback
                0x0000000000000000        0x4 build/stm32h7xx_hal_flash.o
 .text.HAL_FLASH_OperationErrorCallback
                0x0000000000000000        0x4 build/stm32h7xx_hal_flash.o
 .text.HAL_FLASH_IRQHandler
                0x0000000000000000      0x1dc build/stm32h7xx_hal_flash.o
 .text.HAL_FLASH_Unlock
                0x0000000000000000       0x4c build/stm32h7xx_hal_flash.o
 .text.HAL_FLASH_Lock
                0x0000000000000000       0x30 build/stm32h7xx_hal_flash.o
 .text.HAL_FLASH_OB_Unlock
                0x0000000000000000       0x28 build/stm32h7xx_hal_flash.o
 .text.HAL_FLASH_OB_Lock
                0x0000000000000000       0x18 build/stm32h7xx_hal_flash.o
 .text.HAL_FLASH_GetError
                0x0000000000000000        0xc build/stm32h7xx_hal_flash.o
 .text.FLASH_WaitForLastOperation
                0x0000000000000000       0xc4 build/stm32h7xx_hal_flash.o
 .text.HAL_FLASH_Program
                0x0000000000000000       0xc8 build/stm32h7xx_hal_flash.o
 .text.HAL_FLASH_Program_IT
                0x0000000000000000       0xb8 build/stm32h7xx_hal_flash.o
 .text.FLASH_OB_WaitForLastOperation
                0x0000000000000000       0x54 build/stm32h7xx_hal_flash.o
 .text.FLASH_CRC_WaitForLastOperation
                0x0000000000000000       0xa0 build/stm32h7xx_hal_flash.o
 .text.HAL_FLASH_OB_Launch
                0x0000000000000000       0x3c build/stm32h7xx_hal_flash.o
 .debug_info    0x0000000000000000     0x1767 build/stm32h7xx_hal_flash.o
 .debug_abbrev  0x0000000000000000      0x450 build/stm32h7xx_hal_flash.o
 .debug_loc     0x0000000000000000      0xa44 build/stm32h7xx_hal_flash.o
 .debug_aranges
                0x0000000000000000       0x80 build/stm32h7xx_hal_flash.o
 .debug_ranges  0x0000000000000000       0x88 build/stm32h7xx_hal_flash.o
 .debug_line    0x0000000000000000      0xc43 build/stm32h7xx_hal_flash.o
 .debug_str     0x0000000000000000      0xc39 build/stm32h7xx_hal_flash.o
 .comment       0x0000000000000000       0x69 build/stm32h7xx_hal_flash.o
 .debug_frame   0x0000000000000000      0x178 build/stm32h7xx_hal_flash.o
 .ARM.attributes
                0x0000000000000000       0x32 build/stm32h7xx_hal_flash.o
 COMMON         0x0000000000000000       0x1c build/stm32h7xx_hal_flash.o
 .text          0x0000000000000000        0x0 build/stm32h7xx_hal_flash_ex.o
 .data          0x0000000000000000        0x0 build/stm32h7xx_hal_flash_ex.o
 .bss           0x0000000000000000        0x0 build/stm32h7xx_hal_flash_ex.o
 .text.FLASH_MassErase
                0x0000000000000000       0x84 build/stm32h7xx_hal_flash_ex.o
 .text.HAL_FLASHEx_OBProgram
                0x0000000000000000      0x258 build/stm32h7xx_hal_flash_ex.o
 .text.HAL_FLASHEx_OBGetConfig
                0x0000000000000000      0x10c build/stm32h7xx_hal_flash_ex.o
 .text.HAL_FLASHEx_Unlock_Bank1
                0x0000000000000000       0x28 build/stm32h7xx_hal_flash_ex.o
 .text.HAL_FLASHEx_Lock_Bank1
                0x0000000000000000       0x14 build/stm32h7xx_hal_flash_ex.o
 .text.HAL_FLASHEx_Unlock_Bank2
                0x0000000000000000       0x30 build/stm32h7xx_hal_flash_ex.o
 .text.HAL_FLASHEx_Lock_Bank2
                0x0000000000000000       0x18 build/stm32h7xx_hal_flash_ex.o
 .text.HAL_FLASHEx_ComputeCRC
                0x0000000000000000      0x170 build/stm32h7xx_hal_flash_ex.o
 .text.FLASH_Erase_Sector
                0x0000000000000000       0x4c build/stm32h7xx_hal_flash_ex.o
 .text.HAL_FLASHEx_Erase
                0x0000000000000000      0x154 build/stm32h7xx_hal_flash_ex.o
 .text.HAL_FLASHEx_Erase_IT
                0x0000000000000000       0xec build/stm32h7xx_hal_flash_ex.o
 .debug_info    0x0000000000000000     0x1f46 build/stm32h7xx_hal_flash_ex.o
 .debug_abbrev  0x0000000000000000      0x444 build/stm32h7xx_hal_flash_ex.o
 .debug_loc     0x0000000000000000      0xdc4 build/stm32h7xx_hal_flash_ex.o
 .debug_aranges
                0x0000000000000000       0x70 build/stm32h7xx_hal_flash_ex.o
 .debug_ranges  0x0000000000000000      0x190 build/stm32h7xx_hal_flash_ex.o
 .debug_line    0x0000000000000000      0xed8 build/stm32h7xx_hal_flash_ex.o
 .debug_str     0x0000000000000000      0xefb build/stm32h7xx_hal_flash_ex.o
 .comment       0x0000000000000000       0x69 build/stm32h7xx_hal_flash_ex.o
 .debug_frame   0x0000000000000000      0x148 build/stm32h7xx_hal_flash_ex.o
 .ARM.attributes
                0x0000000000000000       0x32 build/stm32h7xx_hal_flash_ex.o
 .text          0x0000000000000000        0x0 build/stm32h7xx_hal_gpio.o
 .data          0x0000000000000000        0x0 build/stm32h7xx_hal_gpio.o
 .bss           0x0000000000000000        0x0 build/stm32h7xx_hal_gpio.o
 .text.HAL_GPIO_DeInit
                0x0000000000000000      0x1a8 build/stm32h7xx_hal_gpio.o
 .text.HAL_GPIO_ReadPin
                0x0000000000000000        0xc build/stm32h7xx_hal_gpio.o
 .text.HAL_GPIO_LockPin
                0x0000000000000000       0x2c build/stm32h7xx_hal_gpio.o
 .text.HAL_GPIO_EXTI_Callback
                0x0000000000000000        0x4 build/stm32h7xx_hal_gpio.o
 .text.HAL_GPIO_EXTI_IRQHandler
                0x0000000000000000       0x1c build/stm32h7xx_hal_gpio.o
 .text          0x0000000000000000        0x0 build/stm32h7xx_hal_hsem.o
 .data          0x0000000000000000        0x0 build/stm32h7xx_hal_hsem.o
 .bss           0x0000000000000000        0x0 build/stm32h7xx_hal_hsem.o
 .text.HAL_HSEM_Take
                0x0000000000000000       0x20 build/stm32h7xx_hal_hsem.o
 .text.HAL_HSEM_FastTake
                0x0000000000000000       0x1c build/stm32h7xx_hal_hsem.o
 .text.HAL_HSEM_IsSemTaken
                0x0000000000000000       0x10 build/stm32h7xx_hal_hsem.o
 .text.HAL_HSEM_Release
                0x0000000000000000       0x10 build/stm32h7xx_hal_hsem.o
 .text.HAL_HSEM_ReleaseAll
                0x0000000000000000       0x14 build/stm32h7xx_hal_hsem.o
 .text.HAL_HSEM_SetClearKey
                0x0000000000000000       0x18 build/stm32h7xx_hal_hsem.o
 .text.HAL_HSEM_GetClearKey
                0x0000000000000000       0x10 build/stm32h7xx_hal_hsem.o
 .text.HAL_HSEM_ActivateNotification
                0x0000000000000000       0x10 build/stm32h7xx_hal_hsem.o
 .text.HAL_HSEM_DeactivateNotification
                0x0000000000000000       0x10 build/stm32h7xx_hal_hsem.o
 .text.HAL_HSEM_FreeCallback
                0x0000000000000000        0x4 build/stm32h7xx_hal_hsem.o
 .text.HAL_HSEM_IRQHandler
                0x0000000000000000       0x1c build/stm32h7xx_hal_hsem.o
 .debug_info    0x0000000000000000     0x101f build/stm32h7xx_hal_hsem.o
 .debug_abbrev  0x0000000000000000      0x32e build/stm32h7xx_hal_hsem.o
 .debug_loc     0x0000000000000000      0x16c build/stm32h7xx_hal_hsem.o
 .debug_aranges
                0x0000000000000000       0x70 build/stm32h7xx_hal_hsem.o
 .debug_ranges  0x0000000000000000       0x60 build/stm32h7xx_hal_hsem.o
 .debug_line    0x0000000000000000      0x3da build/stm32h7xx_hal_hsem.o
 .debug_str     0x0000000000000000      0xa37 build/stm32h7xx_hal_hsem.o
 .comment       0x0000000000000000       0x69 build/stm32h7xx_hal_hsem.o
 .debug_frame   0x0000000000000000       0xcc build/stm32h7xx_hal_hsem.o
 .ARM.attributes
                0x0000000000000000       0x32 build/stm32h7xx_hal_hsem.o
 .text          0x0000000000000000        0x0 build/stm32h7xx_hal_dma.o
 .data          0x0000000000000000        0x0 build/stm32h7xx_hal_dma.o
 .bss           0x0000000000000000        0x0 build/stm32h7xx_hal_dma.o
 .text.HAL_DMA_DeInit
                0x0000000000000000      0x1cc build/stm32h7xx_hal_dma.o
 .text.HAL_DMA_Start
                0x0000000000000000      0x124 build/stm32h7xx_hal_dma.o
 .text.HAL_DMA_PollForTransfer
                0x0000000000000000      0x48c build/stm32h7xx_hal_dma.o
 .text.HAL_DMA_RegisterCallback
                0x0000000000000000       0x68 build/stm32h7xx_hal_dma.o
 .text.HAL_DMA_UnRegisterCallback
                0x0000000000000000       0x74 build/stm32h7xx_hal_dma.o
 .text.HAL_DMA_GetState
                0x0000000000000000        0x8 build/stm32h7xx_hal_dma.o
 .text.HAL_DMA_GetError
                0x0000000000000000        0x4 build/stm32h7xx_hal_dma.o
 .text          0x0000000000000000        0x0 build/stm32h7xx_hal_dma_ex.o
 .data          0x0000000000000000        0x0 build/stm32h7xx_hal_dma_ex.o
 .bss           0x0000000000000000        0x0 build/stm32h7xx_hal_dma_ex.o
 .text.HAL_DMAEx_MultiBufferStart
                0x0000000000000000      0x2a0 build/stm32h7xx_hal_dma_ex.o
 .text.HAL_DMAEx_ConfigMuxSync
                0x0000000000000000       0x68 build/stm32h7xx_hal_dma_ex.o
 .text.HAL_DMAEx_ConfigMuxRequestGenerator
                0x0000000000000000       0x54 build/stm32h7xx_hal_dma_ex.o
 .text.HAL_DMAEx_EnableMuxRequestGenerator
                0x0000000000000000       0x1c build/stm32h7xx_hal_dma_ex.o
 .text.HAL_DMAEx_DisableMuxRequestGenerator
                0x0000000000000000       0x1c build/stm32h7xx_hal_dma_ex.o
 .text.HAL_DMAEx_MUX_IRQHandler
                0x0000000000000000       0x58 build/stm32h7xx_hal_dma_ex.o
 .text          0x0000000000000000        0x0 build/stm32h7xx_hal_mdma.o
 .data          0x0000000000000000        0x0 build/stm32h7xx_hal_mdma.o
 .bss           0x0000000000000000        0x0 build/stm32h7xx_hal_mdma.o
 .text.MDMA_SetConfig
                0x0000000000000000       0x64 build/stm32h7xx_hal_mdma.o
 .text.HAL_MDMA_Init
                0x0000000000000000       0xf4 build/stm32h7xx_hal_mdma.o
 .text.HAL_MDMA_DeInit
                0x0000000000000000       0x44 build/stm32h7xx_hal_mdma.o
 .text.HAL_MDMA_ConfigPostRequestMask
                0x0000000000000000       0x60 build/stm32h7xx_hal_mdma.o
 .text.HAL_MDMA_RegisterCallback
                0x0000000000000000       0x68 build/stm32h7xx_hal_mdma.o
 .text.HAL_MDMA_UnRegisterCallback
                0x0000000000000000       0x74 build/stm32h7xx_hal_mdma.o
 .text.HAL_MDMA_LinkedList_CreateNode
                0x0000000000000000       0xf8 build/stm32h7xx_hal_mdma.o
 .text.HAL_MDMA_LinkedList_AddNode
                0x0000000000000000       0xe0 build/stm32h7xx_hal_mdma.o
 .text.HAL_MDMA_LinkedList_RemoveNode
                0x0000000000000000       0xbc build/stm32h7xx_hal_mdma.o
 .text.HAL_MDMA_LinkedList_EnableCircularMode
                0x0000000000000000       0x58 build/stm32h7xx_hal_mdma.o
 .text.HAL_MDMA_LinkedList_DisableCircularMode
                0x0000000000000000       0x54 build/stm32h7xx_hal_mdma.o
 .text.HAL_MDMA_Start
                0x0000000000000000       0x78 build/stm32h7xx_hal_mdma.o
 .text.HAL_MDMA_Start_IT
                0x0000000000000000       0xa4 build/stm32h7xx_hal_mdma.o
 .text.HAL_MDMA_Abort
                0x0000000000000000       0x78 build/stm32h7xx_hal_mdma.o
 .text.HAL_MDMA_Abort_IT
                0x0000000000000000       0x2c build/stm32h7xx_hal_mdma.o
 .text.HAL_MDMA_PollForTransfer
                0x0000000000000000      0x10c build/stm32h7xx_hal_mdma.o
 .text.HAL_MDMA_GenerateSWRequest
                0x0000000000000000       0x3c build/stm32h7xx_hal_mdma.o
 .text.HAL_MDMA_IRQHandler
                0x0000000000000000      0x17c build/stm32h7xx_hal_mdma.o
 .text.HAL_MDMA_GetState
                0x0000000000000000        0x8 build/stm32h7xx_hal_mdma.o
 .text.HAL_MDMA_GetError
                0x0000000000000000        0x4 build/stm32h7xx_hal_mdma.o
 .debug_info    0x0000000000000000     0x1b6c build/stm32h7xx_hal_mdma.o
 .debug_abbrev  0x0000000000000000      0x3fa build/stm32h7xx_hal_mdma.o
 .debug_loc     0x0000000000000000     0x15df build/stm32h7xx_hal_mdma.o
 .debug_aranges
                0x0000000000000000       0xb8 build/stm32h7xx_hal_mdma.o
 .debug_ranges  0x0000000000000000       0xc8 build/stm32h7xx_hal_mdma.o
 .debug_line    0x0000000000000000     0x1664 build/stm32h7xx_hal_mdma.o
 .debug_str     0x0000000000000000     0x109d build/stm32h7xx_hal_mdma.o
 .comment       0x0000000000000000       0x69 build/stm32h7xx_hal_mdma.o
 .debug_frame   0x0000000000000000      0x3bc build/stm32h7xx_hal_mdma.o
 .ARM.attributes
                0x0000000000000000       0x32 build/stm32h7xx_hal_mdma.o
 .text          0x0000000000000000        0x0 build/stm32h7xx_hal_pwr.o
 .data          0x0000000000000000        0x0 build/stm32h7xx_hal_pwr.o
 .bss           0x0000000000000000        0x0 build/stm32h7xx_hal_pwr.o
 .text.HAL_PWR_DeInit
                0x0000000000000000        0x4 build/stm32h7xx_hal_pwr.o
 .text.HAL_PWR_EnableBkUpAccess
                0x0000000000000000       0x10 build/stm32h7xx_hal_pwr.o
 .text.HAL_PWR_DisableBkUpAccess
                0x0000000000000000       0x10 build/stm32h7xx_hal_pwr.o
 .text.HAL_PWR_ConfigPVD
                0x0000000000000000       0x94 build/stm32h7xx_hal_pwr.o
 .text.HAL_PWR_EnablePVD
                0x0000000000000000       0x10 build/stm32h7xx_hal_pwr.o
 .text.HAL_PWR_DisablePVD
                0x0000000000000000       0x10 build/stm32h7xx_hal_pwr.o
 .text.HAL_PWR_EnableWakeUpPin
                0x0000000000000000       0x18 build/stm32h7xx_hal_pwr.o
 .text.HAL_PWR_DisableWakeUpPin
                0x0000000000000000       0x14 build/stm32h7xx_hal_pwr.o
 .text.HAL_PWR_EnterSLEEPMode
                0x0000000000000000       0x1c build/stm32h7xx_hal_pwr.o
 .text.HAL_PWR_EnterSTOPMode
                0x0000000000000000       0x54 build/stm32h7xx_hal_pwr.o
 .text.HAL_PWR_EnterSTANDBYMode
                0x0000000000000000       0x30 build/stm32h7xx_hal_pwr.o
 .text.HAL_PWR_EnableSleepOnExit
                0x0000000000000000       0x10 build/stm32h7xx_hal_pwr.o
 .text.HAL_PWR_DisableSleepOnExit
                0x0000000000000000       0x10 build/stm32h7xx_hal_pwr.o
 .text.HAL_PWR_EnableSEVOnPend
                0x0000000000000000       0x10 build/stm32h7xx_hal_pwr.o
 .text.HAL_PWR_DisableSEVOnPend
                0x0000000000000000       0x10 build/stm32h7xx_hal_pwr.o
 .text.HAL_PWR_PVDCallback
                0x0000000000000000        0x4 build/stm32h7xx_hal_pwr.o
 .text.HAL_PWR_PVD_IRQHandler
                0x0000000000000000       0x24 build/stm32h7xx_hal_pwr.o
 .debug_info    0x0000000000000000     0x1676 build/stm32h7xx_hal_pwr.o
 .debug_abbrev  0x0000000000000000      0x2b9 build/stm32h7xx_hal_pwr.o
 .debug_loc     0x0000000000000000      0x125 build/stm32h7xx_hal_pwr.o
 .debug_aranges
                0x0000000000000000       0xa0 build/stm32h7xx_hal_pwr.o
 .debug_ranges  0x0000000000000000       0x90 build/stm32h7xx_hal_pwr.o
 .debug_line    0x0000000000000000      0x519 build/stm32h7xx_hal_pwr.o
 .debug_str     0x0000000000000000      0xccc build/stm32h7xx_hal_pwr.o
 .comment       0x0000000000000000       0x69 build/stm32h7xx_hal_pwr.o
 .debug_frame   0x0000000000000000      0x148 build/stm32h7xx_hal_pwr.o
 .ARM.attributes
                0x0000000000000000       0x32 build/stm32h7xx_hal_pwr.o
 .text          0x0000000000000000        0x0 build/stm32h7xx_hal_pwr_ex.o
 .data          0x0000000000000000        0x0 build/stm32h7xx_hal_pwr_ex.o
 .bss           0x0000000000000000        0x0 build/stm32h7xx_hal_pwr_ex.o
 .text.HAL_PWREx_GetSupplyConfig
                0x0000000000000000       0x10 build/stm32h7xx_hal_pwr_ex.o
 .text.HAL_PWREx_ControlVoltageScaling
                0x0000000000000000       0xc0 build/stm32h7xx_hal_pwr_ex.o
 .text.HAL_PWREx_GetVoltageRange
                0x0000000000000000       0x10 build/stm32h7xx_hal_pwr_ex.o
 .text.HAL_PWREx_ControlStopModeVoltageScaling
                0x0000000000000000       0x14 build/stm32h7xx_hal_pwr_ex.o
 .text.HAL_PWREx_GetStopModeVoltageRange
                0x0000000000000000       0x10 build/stm32h7xx_hal_pwr_ex.o
 .text.HAL_PWREx_EnterSTOPMode
                0x0000000000000000       0x60 build/stm32h7xx_hal_pwr_ex.o
 .text.HAL_PWREx_ClearPendingEvent
                0x0000000000000000        0x4 build/stm32h7xx_hal_pwr_ex.o
 .text.HAL_PWREx_EnterSTANDBYMode
                0x0000000000000000       0x38 build/stm32h7xx_hal_pwr_ex.o
 .text.HAL_PWREx_ConfigD3Domain
                0x0000000000000000       0x14 build/stm32h7xx_hal_pwr_ex.o
 .text.HAL_PWREx_EnableFlashPowerDown
                0x0000000000000000       0x10 build/stm32h7xx_hal_pwr_ex.o
 .text.HAL_PWREx_DisableFlashPowerDown
                0x0000000000000000       0x10 build/stm32h7xx_hal_pwr_ex.o
 .text.HAL_PWREx_EnableWakeUpPin
                0x0000000000000000       0xa4 build/stm32h7xx_hal_pwr_ex.o
 .text.HAL_PWREx_DisableWakeUpPin
                0x0000000000000000       0x10 build/stm32h7xx_hal_pwr_ex.o
 .text.HAL_PWREx_GetWakeupFlag
                0x0000000000000000        0xc build/stm32h7xx_hal_pwr_ex.o
 .text.HAL_PWREx_ClearWakeupFlag
                0x0000000000000000       0x18 build/stm32h7xx_hal_pwr_ex.o
 .text.HAL_PWREx_WKUP1_Callback
                0x0000000000000000        0x4 build/stm32h7xx_hal_pwr_ex.o
 .text.HAL_PWREx_WKUP2_Callback
                0x0000000000000000        0x4 build/stm32h7xx_hal_pwr_ex.o
 .text.HAL_PWREx_WKUP3_Callback
                0x0000000000000000        0x4 build/stm32h7xx_hal_pwr_ex.o
 .text.HAL_PWREx_WKUP4_Callback
                0x0000000000000000        0x4 build/stm32h7xx_hal_pwr_ex.o
 .text.HAL_PWREx_WKUP5_Callback
                0x0000000000000000        0x4 build/stm32h7xx_hal_pwr_ex.o
 .text.HAL_PWREx_WKUP6_Callback
                0x0000000000000000        0x4 build/stm32h7xx_hal_pwr_ex.o
 .text.HAL_PWREx_WAKEUP_PIN_IRQHandler
                0x0000000000000000       0x7c build/stm32h7xx_hal_pwr_ex.o
 .text.HAL_PWREx_EnableBkUpReg
                0x0000000000000000       0x34 build/stm32h7xx_hal_pwr_ex.o
 .text.HAL_PWREx_DisableBkUpReg
                0x0000000000000000       0x34 build/stm32h7xx_hal_pwr_ex.o
 .text.HAL_PWREx_EnableUSBReg
                0x0000000000000000       0x34 build/stm32h7xx_hal_pwr_ex.o
 .text.HAL_PWREx_DisableUSBReg
                0x0000000000000000       0x34 build/stm32h7xx_hal_pwr_ex.o
 .text.HAL_PWREx_DisableUSBVoltageDetector
                0x0000000000000000       0x10 build/stm32h7xx_hal_pwr_ex.o
 .text.HAL_PWREx_EnableBatteryCharging
                0x0000000000000000       0x1c build/stm32h7xx_hal_pwr_ex.o
 .text.HAL_PWREx_DisableBatteryCharging
                0x0000000000000000       0x10 build/stm32h7xx_hal_pwr_ex.o
 .text.HAL_PWREx_EnableMonitoring
                0x0000000000000000       0x10 build/stm32h7xx_hal_pwr_ex.o
 .text.HAL_PWREx_DisableMonitoring
                0x0000000000000000       0x10 build/stm32h7xx_hal_pwr_ex.o
 .text.HAL_PWREx_GetTemperatureLevel
                0x0000000000000000       0x20 build/stm32h7xx_hal_pwr_ex.o
 .text.HAL_PWREx_GetVBATLevel
                0x0000000000000000       0x20 build/stm32h7xx_hal_pwr_ex.o
 .text.HAL_PWREx_ConfigAVD
                0x0000000000000000       0x8c build/stm32h7xx_hal_pwr_ex.o
 .text.HAL_PWREx_EnableAVD
                0x0000000000000000       0x10 build/stm32h7xx_hal_pwr_ex.o
 .text.HAL_PWREx_DisableAVD
                0x0000000000000000       0x10 build/stm32h7xx_hal_pwr_ex.o
 .text.HAL_PWREx_AVDCallback
                0x0000000000000000        0x4 build/stm32h7xx_hal_pwr_ex.o
 .text.HAL_PWREx_PVD_AVD_IRQHandler
                0x0000000000000000       0x54 build/stm32h7xx_hal_pwr_ex.o
 .text          0x0000000000000000        0x0 build/stm32h7xx_hal_cortex.o
 .data          0x0000000000000000        0x0 build/stm32h7xx_hal_cortex.o
 .bss           0x0000000000000000        0x0 build/stm32h7xx_hal_cortex.o
 .text.HAL_NVIC_DisableIRQ
                0x0000000000000000       0x28 build/stm32h7xx_hal_cortex.o
 .text.HAL_NVIC_SystemReset
                0x0000000000000000       0x24 build/stm32h7xx_hal_cortex.o
 .text.HAL_MPU_Disable
                0x0000000000000000       0x20 build/stm32h7xx_hal_cortex.o
 .text.HAL_MPU_Enable
                0x0000000000000000       0x24 build/stm32h7xx_hal_cortex.o
 .text.HAL_MPU_ConfigRegion
                0x0000000000000000       0x50 build/stm32h7xx_hal_cortex.o
 .text.HAL_NVIC_GetPriorityGrouping
                0x0000000000000000       0x10 build/stm32h7xx_hal_cortex.o
 .text.HAL_NVIC_GetPriority
                0x0000000000000000       0x58 build/stm32h7xx_hal_cortex.o
 .text.HAL_NVIC_SetPendingIRQ
                0x0000000000000000       0x20 build/stm32h7xx_hal_cortex.o
 .text.HAL_NVIC_GetPendingIRQ
                0x0000000000000000       0x24 build/stm32h7xx_hal_cortex.o
 .text.HAL_NVIC_ClearPendingIRQ
                0x0000000000000000       0x20 build/stm32h7xx_hal_cortex.o
 .text.HAL_NVIC_GetActive
                0x0000000000000000       0x24 build/stm32h7xx_hal_cortex.o
 .text.HAL_SYSTICK_CLKSourceConfig
                0x0000000000000000       0x18 build/stm32h7xx_hal_cortex.o
 .text.HAL_SYSTICK_Callback
                0x0000000000000000        0x4 build/stm32h7xx_hal_cortex.o
 .text.HAL_SYSTICK_IRQHandler
                0x0000000000000000        0x8 build/stm32h7xx_hal_cortex.o
 .text.HAL_GetCurrentCPUID
                0x0000000000000000        0x4 build/stm32h7xx_hal_cortex.o
 .text          0x0000000000000000        0x0 build/stm32h7xx_hal.o
 .data          0x0000000000000000        0x0 build/stm32h7xx_hal.o
 .bss           0x0000000000000000        0x0 build/stm32h7xx_hal.o
 .text.HAL_MspInit
                0x0000000000000000        0x4 build/stm32h7xx_hal.o
 .text.HAL_MspDeInit
                0x0000000000000000        0x4 build/stm32h7xx_hal.o
 .text.HAL_DeInit
                0x0000000000000000       0x84 build/stm32h7xx_hal.o
 .text.HAL_GetTickPrio
                0x0000000000000000        0xc build/stm32h7xx_hal.o
 .text.HAL_SetTickFreq
                0x0000000000000000       0x28 build/stm32h7xx_hal.o
 .text.HAL_GetTickFreq
                0x0000000000000000        0xc build/stm32h7xx_hal.o
 .text.HAL_SuspendTick
                0x0000000000000000       0x10 build/stm32h7xx_hal.o
 .text.HAL_ResumeTick
                0x0000000000000000       0x10 build/stm32h7xx_hal.o
 .text.HAL_GetHalVersion
                0x0000000000000000        0x8 build/stm32h7xx_hal.o
 .text.HAL_GetDEVID
                0x0000000000000000       0x10 build/stm32h7xx_hal.o
 .text.HAL_GetUIDw0
                0x0000000000000000        0xc build/stm32h7xx_hal.o
 .text.HAL_GetUIDw1
                0x0000000000000000        0xc build/stm32h7xx_hal.o
 .text.HAL_GetUIDw2
                0x0000000000000000        0xc build/stm32h7xx_hal.o
 .text.HAL_SYSCFG_VREFBUF_VoltageScalingConfig
                0x0000000000000000       0x14 build/stm32h7xx_hal.o
 .text.HAL_SYSCFG_VREFBUF_HighImpedanceConfig
                0x0000000000000000       0x14 build/stm32h7xx_hal.o
 .text.HAL_SYSCFG_VREFBUF_TrimmingConfig
                0x0000000000000000       0x14 build/stm32h7xx_hal.o
 .text.HAL_SYSCFG_EnableVREFBUF
                0x0000000000000000       0x34 build/stm32h7xx_hal.o
 .text.HAL_SYSCFG_DisableVREFBUF
                0x0000000000000000       0x10 build/stm32h7xx_hal.o
 .text.HAL_SYSCFG_ETHInterfaceSelect
                0x0000000000000000       0x14 build/stm32h7xx_hal.o
 .text.HAL_SYSCFG_AnalogSwitchConfig
                0x0000000000000000       0x14 build/stm32h7xx_hal.o
 .text.HAL_SYSCFG_EnableBOOST
                0x0000000000000000       0x10 build/stm32h7xx_hal.o
 .text.HAL_SYSCFG_DisableBOOST
                0x0000000000000000       0x10 build/stm32h7xx_hal.o
 .text.HAL_SYSCFG_CM7BootAddConfig
                0x0000000000000000       0x30 build/stm32h7xx_hal.o
 .text.HAL_EnableCompensationCell
                0x0000000000000000       0x10 build/stm32h7xx_hal.o
 .text.HAL_DisableCompensationCell
                0x0000000000000000       0x10 build/stm32h7xx_hal.o
 .text.HAL_SYSCFG_EnableIOSpeedOptimize
                0x0000000000000000       0x10 build/stm32h7xx_hal.o
 .text.HAL_SYSCFG_DisableIOSpeedOptimize
                0x0000000000000000       0x10 build/stm32h7xx_hal.o
 .text.HAL_SYSCFG_CompensationCodeSelect
                0x0000000000000000       0x14 build/stm32h7xx_hal.o
 .text.HAL_SYSCFG_CompensationCodeConfig
                0x0000000000000000       0x18 build/stm32h7xx_hal.o
 .text.HAL_DBGMCU_EnableDBGSleepMode
                0x0000000000000000       0x10 build/stm32h7xx_hal.o
 .text.HAL_DBGMCU_DisableDBGSleepMode
                0x0000000000000000       0x10 build/stm32h7xx_hal.o
 .text.HAL_DBGMCU_EnableDBGStopMode
                0x0000000000000000       0x10 build/stm32h7xx_hal.o
 .text.HAL_DBGMCU_DisableDBGStopMode
                0x0000000000000000       0x10 build/stm32h7xx_hal.o
 .text.HAL_DBGMCU_EnableDBGStandbyMode
                0x0000000000000000       0x10 build/stm32h7xx_hal.o
 .text.HAL_DBGMCU_DisableDBGStandbyMode
                0x0000000000000000       0x10 build/stm32h7xx_hal.o
 .text.HAL_SetFMCMemorySwappingConfig
                0x0000000000000000       0x14 build/stm32h7xx_hal.o
 .text.HAL_GetFMCMemorySwappingConfig
                0x0000000000000000       0x10 build/stm32h7xx_hal.o
 .text.HAL_EXTI_EdgeConfig
                0x0000000000000000       0x40 build/stm32h7xx_hal.o
 .text.HAL_EXTI_GenerateSWInterrupt
                0x0000000000000000       0x20 build/stm32h7xx_hal.o
 .text.HAL_EXTI_D1_ClearFlag
                0x0000000000000000       0x18 build/stm32h7xx_hal.o
 .text.HAL_EXTI_D1_EventInputConfig
                0x0000000000000000       0x6c build/stm32h7xx_hal.o
 .text.HAL_EXTI_D3_EventInputConfig
                0x0000000000000000       0x5c build/stm32h7xx_hal.o
 .text          0x0000000000000000        0x0 build/stm32h7xx_hal_i2c.o
 .data          0x0000000000000000        0x0 build/stm32h7xx_hal_i2c.o
 .bss           0x0000000000000000        0x0 build/stm32h7xx_hal_i2c.o
 .text.I2C_IsErrorOccurred
                0x0000000000000000      0x14c build/stm32h7xx_hal_i2c.o
 .text.I2C_WaitOnRXNEFlagUntilTimeout
                0x0000000000000000       0x94 build/stm32h7xx_hal_i2c.o
 .text.I2C_WaitOnTXISFlagUntilTimeout
                0x0000000000000000       0x54 build/stm32h7xx_hal_i2c.o
 .text.I2C_WaitOnFlagUntilTimeout
                0x0000000000000000       0x5c build/stm32h7xx_hal_i2c.o
 .text.I2C_RequestMemoryWrite
                0x0000000000000000       0x84 build/stm32h7xx_hal_i2c.o
 .text.I2C_RequestMemoryRead
                0x0000000000000000       0x84 build/stm32h7xx_hal_i2c.o
 .text.I2C_WaitOnSTOPFlagUntilTimeout
                0x0000000000000000       0x4c build/stm32h7xx_hal_i2c.o
 .text.HAL_I2C_MspInit
                0x0000000000000000        0x4 build/stm32h7xx_hal_i2c.o
 .text.HAL_I2C_Init
                0x0000000000000000       0xa8 build/stm32h7xx_hal_i2c.o
 .text.HAL_I2C_MspDeInit
                0x0000000000000000        0x4 build/stm32h7xx_hal_i2c.o
 .text.HAL_I2C_DeInit
                0x0000000000000000       0x34 build/stm32h7xx_hal_i2c.o
 .text.HAL_I2C_Master_Transmit
                0x0000000000000000      0x16c build/stm32h7xx_hal_i2c.o
 .text.HAL_I2C_Master_Receive
                0x0000000000000000      0x168 build/stm32h7xx_hal_i2c.o
 .text.HAL_I2C_Slave_Transmit
                0x0000000000000000      0x198 build/stm32h7xx_hal_i2c.o
 .text.HAL_I2C_Slave_Receive
                0x0000000000000000      0x180 build/stm32h7xx_hal_i2c.o
 .text.HAL_I2C_Master_Transmit_IT
                0x0000000000000000       0x98 build/stm32h7xx_hal_i2c.o
 .text.HAL_I2C_Master_Receive_IT
                0x0000000000000000       0x98 build/stm32h7xx_hal_i2c.o
 .text.HAL_I2C_Slave_Transmit_IT
                0x0000000000000000       0x64 build/stm32h7xx_hal_i2c.o
 .text.HAL_I2C_Slave_Receive_IT
                0x0000000000000000       0x64 build/stm32h7xx_hal_i2c.o
 .text.HAL_I2C_Master_Transmit_DMA
                0x0000000000000000      0x174 build/stm32h7xx_hal_i2c.o
 .text.HAL_I2C_Master_Receive_DMA
                0x0000000000000000      0x170 build/stm32h7xx_hal_i2c.o
 .text.HAL_I2C_Slave_Transmit_DMA
                0x0000000000000000       0xd8 build/stm32h7xx_hal_i2c.o
 .text.HAL_I2C_Slave_Receive_DMA
                0x0000000000000000       0xdc build/stm32h7xx_hal_i2c.o
 .text.HAL_I2C_Mem_Write
                0x0000000000000000      0x1a4 build/stm32h7xx_hal_i2c.o
 .text.HAL_I2C_Mem_Read
                0x0000000000000000      0x1b4 build/stm32h7xx_hal_i2c.o
 .text.HAL_I2C_Mem_Write_IT
                0x0000000000000000      0x100 build/stm32h7xx_hal_i2c.o
 .text.HAL_I2C_Mem_Read_IT
                0x0000000000000000      0x104 build/stm32h7xx_hal_i2c.o
 .text.HAL_I2C_Mem_Write_DMA
                0x0000000000000000      0x170 build/stm32h7xx_hal_i2c.o
 .text.HAL_I2C_Mem_Read_DMA
                0x0000000000000000      0x174 build/stm32h7xx_hal_i2c.o
 .text.HAL_I2C_IsDeviceReady
                0x0000000000000000      0x13c build/stm32h7xx_hal_i2c.o
 .text.HAL_I2C_Master_Seq_Transmit_IT
                0x0000000000000000       0xec build/stm32h7xx_hal_i2c.o
 .text.HAL_I2C_Master_Seq_Transmit_DMA
                0x0000000000000000      0x1cc build/stm32h7xx_hal_i2c.o
 .text.HAL_I2C_Master_Seq_Receive_IT
                0x0000000000000000       0xec build/stm32h7xx_hal_i2c.o
 .text.HAL_I2C_Master_Seq_Receive_DMA
                0x0000000000000000      0x1c8 build/stm32h7xx_hal_i2c.o
 .text.HAL_I2C_Slave_Seq_Transmit_IT
                0x0000000000000000       0xf0 build/stm32h7xx_hal_i2c.o
 .text.HAL_I2C_Slave_Seq_Transmit_DMA
                0x0000000000000000      0x1ec build/stm32h7xx_hal_i2c.o
 .text.HAL_I2C_Slave_Seq_Receive_IT
                0x0000000000000000       0xf0 build/stm32h7xx_hal_i2c.o
 .text.HAL_I2C_Slave_Seq_Receive_DMA
                0x0000000000000000      0x1f8 build/stm32h7xx_hal_i2c.o
 .text.HAL_I2C_EnableListen_IT
                0x0000000000000000       0x30 build/stm32h7xx_hal_i2c.o
 .text.HAL_I2C_DisableListen_IT
                0x0000000000000000       0x40 build/stm32h7xx_hal_i2c.o
 .text.HAL_I2C_Master_Abort_IT
                0x0000000000000000       0xc4 build/stm32h7xx_hal_i2c.o
 .text.HAL_I2C_EV_IRQHandler
                0x0000000000000000       0x1c build/stm32h7xx_hal_i2c.o
 .text.HAL_I2C_MasterTxCpltCallback
                0x0000000000000000        0x4 build/stm32h7xx_hal_i2c.o
 .text.HAL_I2C_MasterRxCpltCallback
                0x0000000000000000        0x4 build/stm32h7xx_hal_i2c.o
 .text.I2C_ITMasterSeqCplt
                0x0000000000000000       0x74 build/stm32h7xx_hal_i2c.o
 .text.HAL_I2C_SlaveTxCpltCallback
                0x0000000000000000        0x4 build/stm32h7xx_hal_i2c.o
 .text.HAL_I2C_SlaveRxCpltCallback
                0x0000000000000000        0x4 build/stm32h7xx_hal_i2c.o
 .text.I2C_ITSlaveSeqCplt
                0x0000000000000000       0xa4 build/stm32h7xx_hal_i2c.o
 .text.I2C_DMASlaveTransmitCplt
                0x0000000000000000       0x1c build/stm32h7xx_hal_i2c.o
 .text.I2C_DMASlaveReceiveCplt
                0x0000000000000000       0x30 build/stm32h7xx_hal_i2c.o
 .text.HAL_I2C_AddrCallback
                0x0000000000000000        0x4 build/stm32h7xx_hal_i2c.o
 .text.I2C_ITAddrCplt.isra.7.part.8
                0x0000000000000000       0x78 build/stm32h7xx_hal_i2c.o
 .text.HAL_I2C_ListenCpltCallback
                0x0000000000000000        0x4 build/stm32h7xx_hal_i2c.o
 .text.I2C_ITListenCplt
                0x0000000000000000       0x70 build/stm32h7xx_hal_i2c.o
 .text.HAL_I2C_MemTxCpltCallback
                0x0000000000000000        0x4 build/stm32h7xx_hal_i2c.o
 .text.HAL_I2C_MemRxCpltCallback
                0x0000000000000000        0x4 build/stm32h7xx_hal_i2c.o
 .text.HAL_I2C_ErrorCallback
                0x0000000000000000        0x4 build/stm32h7xx_hal_i2c.o
 .text.HAL_I2C_AbortCpltCallback
                0x0000000000000000        0x4 build/stm32h7xx_hal_i2c.o
 .text.I2C_TreatErrorCallback
                0x0000000000000000       0x2c build/stm32h7xx_hal_i2c.o
 .text.I2C_ITError
                0x0000000000000000      0x114 build/stm32h7xx_hal_i2c.o
 .text.I2C_ITSlaveCplt
                0x0000000000000000      0x140 build/stm32h7xx_hal_i2c.o
 .text.I2C_Slave_ISR_IT
                0x0000000000000000      0x144 build/stm32h7xx_hal_i2c.o
 .text.I2C_ITMasterCplt
                0x0000000000000000      0x12c build/stm32h7xx_hal_i2c.o
 .text.I2C_Master_ISR_IT
                0x0000000000000000      0x184 build/stm32h7xx_hal_i2c.o
 .text.I2C_Slave_ISR_DMA
                0x0000000000000000      0x134 build/stm32h7xx_hal_i2c.o
 .text.I2C_Master_ISR_DMA
                0x0000000000000000      0x144 build/stm32h7xx_hal_i2c.o
 .text.I2C_DMAError
                0x0000000000000000       0x50 build/stm32h7xx_hal_i2c.o
 .text.I2C_DMAMasterTransmitCplt
                0x0000000000000000       0x94 build/stm32h7xx_hal_i2c.o
 .text.I2C_DMAMasterReceiveCplt
                0x0000000000000000       0x94 build/stm32h7xx_hal_i2c.o
 .text.HAL_I2C_ER_IRQHandler
                0x0000000000000000       0x7c build/stm32h7xx_hal_i2c.o
 .text.I2C_DMAAbort
                0x0000000000000000       0x18 build/stm32h7xx_hal_i2c.o
 .text.HAL_I2C_GetState
                0x0000000000000000        0x8 build/stm32h7xx_hal_i2c.o
 .text.HAL_I2C_GetMode
                0x0000000000000000        0x8 build/stm32h7xx_hal_i2c.o
 .text.HAL_I2C_GetError
                0x0000000000000000        0x4 build/stm32h7xx_hal_i2c.o
 .debug_info    0x0000000000000000     0x63ba build/stm32h7xx_hal_i2c.o
 .debug_abbrev  0x0000000000000000      0x518 build/stm32h7xx_hal_i2c.o
 .debug_loc     0x0000000000000000     0x7eeb build/stm32h7xx_hal_i2c.o
 .debug_aranges
                0x0000000000000000      0x218 build/stm32h7xx_hal_i2c.o
 .debug_ranges  0x0000000000000000      0xde8 build/stm32h7xx_hal_i2c.o
 .debug_line    0x0000000000000000     0x639f build/stm32h7xx_hal_i2c.o
 .debug_str     0x0000000000000000     0x17b6 build/stm32h7xx_hal_i2c.o
 .comment       0x0000000000000000       0x69 build/stm32h7xx_hal_i2c.o
 .debug_frame   0x0000000000000000      0xc38 build/stm32h7xx_hal_i2c.o
 .ARM.attributes
                0x0000000000000000       0x32 build/stm32h7xx_hal_i2c.o
 .text          0x0000000000000000        0x0 build/stm32h7xx_hal_i2c_ex.o
 .data          0x0000000000000000        0x0 build/stm32h7xx_hal_i2c_ex.o
 .bss           0x0000000000000000        0x0 build/stm32h7xx_hal_i2c_ex.o
 .text.HAL_I2CEx_ConfigAnalogFilter
                0x0000000000000000       0x54 build/stm32h7xx_hal_i2c_ex.o
 .text.HAL_I2CEx_ConfigDigitalFilter
                0x0000000000000000       0x50 build/stm32h7xx_hal_i2c_ex.o
 .text.HAL_I2CEx_EnableWakeUp
                0x0000000000000000       0x4c build/stm32h7xx_hal_i2c_ex.o
 .text.HAL_I2CEx_DisableWakeUp
                0x0000000000000000       0x4c build/stm32h7xx_hal_i2c_ex.o
 .text.HAL_I2CEx_EnableFastModePlus
                0x0000000000000000       0x30 build/stm32h7xx_hal_i2c_ex.o
 .text.HAL_I2CEx_DisableFastModePlus
                0x0000000000000000       0x34 build/stm32h7xx_hal_i2c_ex.o
 .debug_info    0x0000000000000000     0x1b6f build/stm32h7xx_hal_i2c_ex.o
 .debug_abbrev  0x0000000000000000      0x2a0 build/stm32h7xx_hal_i2c_ex.o
 .debug_loc     0x0000000000000000      0x2d2 build/stm32h7xx_hal_i2c_ex.o
 .debug_aranges
                0x0000000000000000       0x48 build/stm32h7xx_hal_i2c_ex.o
 .debug_ranges  0x0000000000000000       0x68 build/stm32h7xx_hal_i2c_ex.o
 .debug_line    0x0000000000000000      0x60c build/stm32h7xx_hal_i2c_ex.o
 .debug_str     0x0000000000000000     0x11ab build/stm32h7xx_hal_i2c_ex.o
 .comment       0x0000000000000000       0x69 build/stm32h7xx_hal_i2c_ex.o
 .debug_frame   0x0000000000000000       0xe8 build/stm32h7xx_hal_i2c_ex.o
 .ARM.attributes
                0x0000000000000000       0x32 build/stm32h7xx_hal_i2c_ex.o
 .text          0x0000000000000000        0x0 build/stm32h7xx_hal_exti.o
 .data          0x0000000000000000        0x0 build/stm32h7xx_hal_exti.o
 .bss           0x0000000000000000        0x0 build/stm32h7xx_hal_exti.o
 .text.HAL_EXTI_SetConfigLine
                0x0000000000000000      0x120 build/stm32h7xx_hal_exti.o
 .text.HAL_EXTI_GetConfigLine
                0x0000000000000000       0xf8 build/stm32h7xx_hal_exti.o
 .text.HAL_EXTI_ClearConfigLine
                0x0000000000000000       0xe8 build/stm32h7xx_hal_exti.o
 .text.HAL_EXTI_RegisterCallback
                0x0000000000000000       0x10 build/stm32h7xx_hal_exti.o
 .text.HAL_EXTI_GetHandle
                0x0000000000000000        0xc build/stm32h7xx_hal_exti.o
 .text.HAL_EXTI_IRQHandler
                0x0000000000000000       0x34 build/stm32h7xx_hal_exti.o
 .text.HAL_EXTI_GetPending
                0x0000000000000000       0x20 build/stm32h7xx_hal_exti.o
 .text.HAL_EXTI_ClearPending
                0x0000000000000000       0x1c build/stm32h7xx_hal_exti.o
 .text.HAL_EXTI_GenerateSWI
                0x0000000000000000       0x1c build/stm32h7xx_hal_exti.o
 .debug_info    0x0000000000000000     0x1712 build/stm32h7xx_hal_exti.o
 .debug_abbrev  0x0000000000000000      0x2f5 build/stm32h7xx_hal_exti.o
 .debug_loc     0x0000000000000000      0xe22 build/stm32h7xx_hal_exti.o
 .debug_aranges
                0x0000000000000000       0x60 build/stm32h7xx_hal_exti.o
 .debug_ranges  0x0000000000000000       0x50 build/stm32h7xx_hal_exti.o
 .debug_line    0x0000000000000000      0x983 build/stm32h7xx_hal_exti.o
 .debug_str     0x0000000000000000      0xbd9 build/stm32h7xx_hal_exti.o
 .comment       0x0000000000000000       0x69 build/stm32h7xx_hal_exti.o
 .debug_frame   0x0000000000000000      0x148 build/stm32h7xx_hal_exti.o
 .ARM.attributes
                0x0000000000000000       0x32 build/stm32h7xx_hal_exti.o
 .text          0x0000000000000000        0x0 build/stm32h7xx_hal_tim.o
 .data          0x0000000000000000        0x0 build/stm32h7xx_hal_tim.o
 .bss           0x0000000000000000        0x0 build/stm32h7xx_hal_tim.o
 .debug_info    0x0000000000000000      0xc81 build/stm32h7xx_hal_tim.o
 .debug_abbrev  0x0000000000000000      0x1d0 build/stm32h7xx_hal_tim.o
 .debug_aranges
                0x0000000000000000       0x18 build/stm32h7xx_hal_tim.o
 .debug_line    0x0000000000000000      0x207 build/stm32h7xx_hal_tim.o
 .debug_str     0x0000000000000000      0x89d build/stm32h7xx_hal_tim.o
 .comment       0x0000000000000000       0x69 build/stm32h7xx_hal_tim.o
 .ARM.attributes
                0x0000000000000000       0x37 build/stm32h7xx_hal_tim.o
 .text          0x0000000000000000        0x0 build/stm32h7xx_hal_tim_ex.o
 .data          0x0000000000000000        0x0 build/stm32h7xx_hal_tim_ex.o
 .bss           0x0000000000000000        0x0 build/stm32h7xx_hal_tim_ex.o
 .debug_info    0x0000000000000000      0xc81 build/stm32h7xx_hal_tim_ex.o
 .debug_abbrev  0x0000000000000000      0x1d0 build/stm32h7xx_hal_tim_ex.o
 .debug_aranges
                0x0000000000000000       0x18 build/stm32h7xx_hal_tim_ex.o
 .debug_line    0x0000000000000000      0x207 build/stm32h7xx_hal_tim_ex.o
 .debug_str     0x0000000000000000      0x8a0 build/stm32h7xx_hal_tim_ex.o
 .comment       0x0000000000000000       0x69 build/stm32h7xx_hal_tim_ex.o
 .ARM.attributes
                0x0000000000000000       0x37 build/stm32h7xx_hal_tim_ex.o
 .text          0x0000000000000000        0x0 build/stm32h7xx_hal_uart.o
 .data          0x0000000000000000        0x0 build/stm32h7xx_hal_uart.o
 .bss           0x0000000000000000        0x0 build/stm32h7xx_hal_uart.o
 .text.UART_TxISR_16BIT
                0x0000000000000000       0x54 build/stm32h7xx_hal_uart.o
 .text.UART_TxISR_8BIT_FIFOEN.part.2
                0x0000000000000000       0x2c build/stm32h7xx_hal_uart.o
 .text.UART_TxISR_8BIT_FIFOEN
                0x0000000000000000       0x60 build/stm32h7xx_hal_uart.o
 .text.UART_TxISR_16BIT_FIFOEN
                0x0000000000000000       0x64 build/stm32h7xx_hal_uart.o
 .text.UART_TxISR_8BIT
                0x0000000000000000       0x50 build/stm32h7xx_hal_uart.o
 .text.HAL_UART_MspInit
                0x0000000000000000        0x4 build/stm32h7xx_hal_uart.o
 .text.HAL_UART_MspDeInit
                0x0000000000000000        0x4 build/stm32h7xx_hal_uart.o
 .text.HAL_UART_DeInit
                0x0000000000000000       0x3c build/stm32h7xx_hal_uart.o
 .text.HAL_UART_Transmit_IT
                0x0000000000000000       0xd0 build/stm32h7xx_hal_uart.o
 .text.HAL_UART_DMAPause
                0x0000000000000000       0x9c build/stm32h7xx_hal_uart.o
 .text.HAL_UART_DMAResume
                0x0000000000000000       0x9c build/stm32h7xx_hal_uart.o
 .text.HAL_UART_DMAStop
                0x0000000000000000       0xc8 build/stm32h7xx_hal_uart.o
 .text.HAL_UART_Abort
                0x0000000000000000      0x11c build/stm32h7xx_hal_uart.o
 .text.HAL_UART_AbortTransmit
                0x0000000000000000       0x94 build/stm32h7xx_hal_uart.o
 .text.HAL_UART_AbortReceive
                0x0000000000000000       0xc0 build/stm32h7xx_hal_uart.o
 .text.HAL_UART_RxCpltCallback
                0x0000000000000000        0x4 build/stm32h7xx_hal_uart.o
 .text.HAL_UART_RxHalfCpltCallback
                0x0000000000000000        0x4 build/stm32h7xx_hal_uart.o
 .text.HAL_UART_AbortCpltCallback
                0x0000000000000000        0x4 build/stm32h7xx_hal_uart.o
 .text.HAL_UART_Abort_IT
                0x0000000000000000      0x150 build/stm32h7xx_hal_uart.o
 .text.UART_DMARxAbortCallback
                0x0000000000000000       0x44 build/stm32h7xx_hal_uart.o
 .text.UART_DMATxAbortCallback
                0x0000000000000000       0x54 build/stm32h7xx_hal_uart.o
 .text.HAL_UART_AbortTransmitCpltCallback
                0x0000000000000000        0x4 build/stm32h7xx_hal_uart.o
 .text.HAL_UART_AbortTransmit_IT
                0x0000000000000000       0xac build/stm32h7xx_hal_uart.o
 .text.UART_DMATxOnlyAbortCallback
                0x0000000000000000       0x2c build/stm32h7xx_hal_uart.o
 .text.HAL_UART_AbortReceiveCpltCallback
                0x0000000000000000        0x4 build/stm32h7xx_hal_uart.o
 .text.HAL_UART_AbortReceive_IT
                0x0000000000000000       0xd8 build/stm32h7xx_hal_uart.o
 .text.UART_DMARxOnlyAbortCallback
                0x0000000000000000       0x28 build/stm32h7xx_hal_uart.o
 .text.UART_RxISR_8BIT.part.4
                0x0000000000000000       0x58 build/stm32h7xx_hal_uart.o
 .text.UART_RxISR_16BIT
                0x0000000000000000       0x58 build/stm32h7xx_hal_uart.o
 .text.UART_RxISR_8BIT
                0x0000000000000000       0x54 build/stm32h7xx_hal_uart.o
 .text.UART_RxISR_8BIT_FIFOEN
                0x0000000000000000      0x194 build/stm32h7xx_hal_uart.o
 .text.UART_RxISR_16BIT_FIFOEN
                0x0000000000000000      0x18c build/stm32h7xx_hal_uart.o
 .text.HAL_UART_ReceiverTimeout_Config
                0x0000000000000000       0x18 build/stm32h7xx_hal_uart.o
 .text.HAL_UART_EnableReceiverTimeout
                0x0000000000000000       0x48 build/stm32h7xx_hal_uart.o
 .text.HAL_UART_DisableReceiverTimeout
                0x0000000000000000       0x48 build/stm32h7xx_hal_uart.o
 .text.HAL_MultiProcessor_EnterMuteMode
                0x0000000000000000        0xc build/stm32h7xx_hal_uart.o
 .text.HAL_HalfDuplex_EnableTransmitter
                0x0000000000000000       0x4c build/stm32h7xx_hal_uart.o
 .text.HAL_HalfDuplex_EnableReceiver
                0x0000000000000000       0x4c build/stm32h7xx_hal_uart.o
 .text.HAL_LIN_SendBreak
                0x0000000000000000       0x34 build/stm32h7xx_hal_uart.o
 .text.HAL_UART_GetState
                0x0000000000000000        0xc build/stm32h7xx_hal_uart.o
 .text.HAL_UART_GetError
                0x0000000000000000        0x8 build/stm32h7xx_hal_uart.o
 .text.HAL_UART_Transmit
                0x0000000000000000       0xe0 build/stm32h7xx_hal_uart.o
 .text.HAL_UART_Receive
                0x0000000000000000      0x114 build/stm32h7xx_hal_uart.o
 .text.HAL_HalfDuplex_Init
                0x0000000000000000       0x74 build/stm32h7xx_hal_uart.o
 .text.HAL_LIN_Init
                0x0000000000000000       0x8c build/stm32h7xx_hal_uart.o
 .text.HAL_MultiProcessor_Init
                0x0000000000000000       0x90 build/stm32h7xx_hal_uart.o
 .text.HAL_MultiProcessor_EnableMuteMode
                0x0000000000000000       0x40 build/stm32h7xx_hal_uart.o
 .text.HAL_MultiProcessor_DisableMuteMode
                0x0000000000000000       0x40 build/stm32h7xx_hal_uart.o
 .text.UART_Start_Receive_IT
                0x0000000000000000      0x158 build/stm32h7xx_hal_uart.o
 .text.HAL_UART_Receive_IT
                0x0000000000000000       0x5c build/stm32h7xx_hal_uart.o
 .text          0x0000000000000000        0x0 build/stm32h7xx_hal_uart_ex.o
 .data          0x0000000000000000        0x0 build/stm32h7xx_hal_uart_ex.o
 .bss           0x0000000000000000        0x0 build/stm32h7xx_hal_uart_ex.o
 .text.HAL_RS485Ex_Init
                0x0000000000000000       0x8c build/stm32h7xx_hal_uart_ex.o
 .text.HAL_MultiProcessorEx_AddressLength_Set
                0x0000000000000000       0x34 build/stm32h7xx_hal_uart_ex.o
 .text.HAL_UARTEx_StopModeWakeUpSourceConfig
                0x0000000000000000       0x94 build/stm32h7xx_hal_uart_ex.o
 .text.HAL_UARTEx_EnableStopMode
                0x0000000000000000       0x2c build/stm32h7xx_hal_uart_ex.o
 .text.HAL_UARTEx_DisableStopMode
                0x0000000000000000       0x2c build/stm32h7xx_hal_uart_ex.o
 .text.HAL_UARTEx_EnableFifoMode
                0x0000000000000000       0x44 build/stm32h7xx_hal_uart_ex.o
 .text.HAL_UARTEx_ReceiveToIdle
                0x0000000000000000      0x150 build/stm32h7xx_hal_uart_ex.o
 .text.HAL_UARTEx_ReceiveToIdle_IT
                0x0000000000000000       0x4c build/stm32h7xx_hal_uart_ex.o
 .text.HAL_UARTEx_ReceiveToIdle_DMA
                0x0000000000000000       0x4c build/stm32h7xx_hal_uart_ex.o
 .text          0x0000000000000000        0x0 build/system_stm32h7xx.o
 .data          0x0000000000000000        0x0 build/system_stm32h7xx.o
 .bss           0x0000000000000000        0x0 build/system_stm32h7xx.o
 .text.SystemCoreClockUpdate
                0x0000000000000000      0x14c build/system_stm32h7xx.o
 .text          0x0000000000000000        0x0 build/usbd_core.o
 .data          0x0000000000000000        0x0 build/usbd_core.o
 .bss           0x0000000000000000        0x0 build/usbd_core.o
 .text.USBD_DeInit
                0x0000000000000000       0x3c build/usbd_core.o
 .text.USBD_Stop
                0x0000000000000000       0x1c build/usbd_core.o
 .text.USBD_RunTestMode
                0x0000000000000000        0x4 build/usbd_core.o
 .text          0x0000000000000000        0x0 build/usbd_ctlreq.o
 .data          0x0000000000000000        0x0 build/usbd_ctlreq.o
 .bss           0x0000000000000000        0x0 build/usbd_ctlreq.o
 .text          0x0000000000000000        0x0 build/usbd_ioreq.o
 .data          0x0000000000000000        0x0 build/usbd_ioreq.o
 .bss           0x0000000000000000        0x0 build/usbd_ioreq.o
 .text.USBD_GetRxCount
                0x0000000000000000        0x4 build/usbd_ioreq.o
 .text          0x0000000000000000        0x0 build/usbd_cdc.o
 .data          0x0000000000000000        0x0 build/usbd_cdc.o
 .bss           0x0000000000000000        0x0 build/usbd_cdc.o
 .text.USBD_CDC_TransmitPacket
                0x0000000000000000       0x34 build/usbd_cdc.o
 .text          0x0000000000000000        0x0 build/dma.o
 .data          0x0000000000000000        0x0 build/dma.o
 .bss           0x0000000000000000        0x0 build/dma.o
 .text          0x0000000000000000        0x0 build/usbd_uvc.o
 .data          0x0000000000000000        0x0 build/usbd_uvc.o
 .bss           0x0000000000000000        0x0 build/usbd_uvc.o
 .text.USBD_UVC_GetUsrStrDescriptor
                0x0000000000000000       0x20 build/usbd_uvc.o
 .rodata.USBD_UVC_GetUsrStrDescriptor.str1.4
                0x0000000000000000       0x14 build/usbd_uvc.o
 .text          0x0000000000000000        0x0 build/usbd_uvc_if.o
 .data          0x0000000000000000        0x0 build/usbd_uvc_if.o
 .bss           0x0000000000000000        0x0 build/usbd_uvc_if.o
 .bss.wait_cnt  0x0000000000000000        0x4 build/usbd_uvc_if.o
 .text          0x0000000000000000        0x0 build/rng.o
 .data          0x0000000000000000        0x0 build/rng.o
 .bss           0x0000000000000000        0x0 build/rng.o
 .text.HAL_RNG_MspDeInit
                0x0000000000000000       0x24 build/rng.o
 .text          0x0000000000000000        0x0 build/stm32h7xx_hal_rng.o
 .data          0x0000000000000000        0x0 build/stm32h7xx_hal_rng.o
 .bss           0x0000000000000000        0x0 build/stm32h7xx_hal_rng.o
 .text.HAL_RNG_MspInit
                0x0000000000000000        0x4 build/stm32h7xx_hal_rng.o
 .text.HAL_RNG_MspDeInit
                0x0000000000000000        0x4 build/stm32h7xx_hal_rng.o
 .text.HAL_RNG_DeInit
                0x0000000000000000       0x34 build/stm32h7xx_hal_rng.o
 .text.HAL_RNG_GenerateRandomNumber
                0x0000000000000000       0x64 build/stm32h7xx_hal_rng.o
 .text.HAL_RNG_GenerateRandomNumber_IT
                0x0000000000000000       0x34 build/stm32h7xx_hal_rng.o
 .text.HAL_RNG_ReadLastRandomNumber
                0x0000000000000000        0x4 build/stm32h7xx_hal_rng.o
 .text.HAL_RNG_ReadyDataCallback
                0x0000000000000000        0x4 build/stm32h7xx_hal_rng.o
 .text.HAL_RNG_ErrorCallback
                0x0000000000000000        0x4 build/stm32h7xx_hal_rng.o
 .text.HAL_RNG_IRQHandler
                0x0000000000000000       0x70 build/stm32h7xx_hal_rng.o
 .text.HAL_RNG_GetState
                0x0000000000000000        0x4 build/stm32h7xx_hal_rng.o
 .text.HAL_RNG_GetError
                0x0000000000000000        0x4 build/stm32h7xx_hal_rng.o
 .text          0x0000000000000000        0x0 build/stm32h7xx_hal_rng_ex.o
 .data          0x0000000000000000        0x0 build/stm32h7xx_hal_rng_ex.o
 .bss           0x0000000000000000        0x0 build/stm32h7xx_hal_rng_ex.o
 .debug_info    0x0000000000000000      0xc81 build/stm32h7xx_hal_rng_ex.o
 .debug_abbrev  0x0000000000000000      0x1d0 build/stm32h7xx_hal_rng_ex.o
 .debug_aranges
                0x0000000000000000       0x18 build/stm32h7xx_hal_rng_ex.o
 .debug_line    0x0000000000000000      0x207 build/stm32h7xx_hal_rng_ex.o
 .debug_str     0x0000000000000000      0x8a0 build/stm32h7xx_hal_rng_ex.o
 .comment       0x0000000000000000       0x69 build/stm32h7xx_hal_rng_ex.o
 .ARM.attributes
                0x0000000000000000       0x37 build/stm32h7xx_hal_rng_ex.o
 .text          0x0000000000000000        0x0 build/dcmi.o
 .data          0x0000000000000000        0x0 build/dcmi.o
 .bss           0x0000000000000000        0x0 build/dcmi.o
 .text.HAL_DCMI_MspDeInit
                0x0000000000000000       0x74 build/dcmi.o
 .text          0x0000000000000000        0x0 build/stm32h7xx_hal_dcmi.o
 .data          0x0000000000000000        0x0 build/stm32h7xx_hal_dcmi.o
 .bss           0x0000000000000000        0x0 build/stm32h7xx_hal_dcmi.o
 .text.HAL_DCMI_MspInit
                0x0000000000000000        0x4 build/stm32h7xx_hal_dcmi.o
 .text.HAL_DCMI_MspDeInit
                0x0000000000000000        0x4 build/stm32h7xx_hal_dcmi.o
 .text.HAL_DCMI_DeInit
                0x0000000000000000       0x18 build/stm32h7xx_hal_dcmi.o
 .text.HAL_DCMI_Stop
                0x0000000000000000       0x84 build/stm32h7xx_hal_dcmi.o
 .text.HAL_DCMI_Suspend
                0x0000000000000000       0x88 build/stm32h7xx_hal_dcmi.o
 .text.HAL_DCMI_Resume
                0x0000000000000000       0x34 build/stm32h7xx_hal_dcmi.o
 .text.HAL_DCMI_ErrorCallback
                0x0000000000000000        0x4 build/stm32h7xx_hal_dcmi.o
 .text.HAL_DCMI_LineEventCallback
                0x0000000000000000        0x4 build/stm32h7xx_hal_dcmi.o
 .text.HAL_DCMI_VsyncEventCallback
                0x0000000000000000        0x4 build/stm32h7xx_hal_dcmi.o
 .text.HAL_DCMI_FrameEventCallback
                0x0000000000000000        0x4 build/stm32h7xx_hal_dcmi.o
 .text.HAL_DCMI_ConfigCrop
                0x0000000000000000       0x3c build/stm32h7xx_hal_dcmi.o
 .text.HAL_DCMI_DisableCrop
                0x0000000000000000       0x34 build/stm32h7xx_hal_dcmi.o
 .text.HAL_DCMI_EnableCrop
                0x0000000000000000       0x34 build/stm32h7xx_hal_dcmi.o
 .text.HAL_DCMI_ConfigSyncUnmask
                0x0000000000000000       0x30 build/stm32h7xx_hal_dcmi.o
 .text.HAL_DCMI_GetState
                0x0000000000000000        0x8 build/stm32h7xx_hal_dcmi.o
 .text.HAL_DCMI_GetError
                0x0000000000000000        0x4 build/stm32h7xx_hal_dcmi.o
 .text          0x0000000000000000        0x0 build/retarget.o
 .data          0x0000000000000000        0x0 build/retarget.o
 .bss           0x0000000000000000        0x0 build/retarget.o
 .text          0x0000000000000000        0x0 build/esq_seq.o
 .data          0x0000000000000000        0x0 build/esq_seq.o
 .bss           0x0000000000000000        0x0 build/esq_seq.o
 .text.esc_seq_clear
                0x0000000000000000       0x20 build/esq_seq.o
 .text.esc_seq_search
                0x0000000000000000      0x160 build/esq_seq.o
 .bss.esc_seq   0x0000000000000000        0x1 build/esq_seq.o
 .bss.esc_seq_buff
                0x0000000000000000        0x6 build/esq_seq.o
 .bss.esc_seq_iter
                0x0000000000000000        0x1 build/esq_seq.o
 .debug_info    0x0000000000000000     0x1111 build/esq_seq.o
 .debug_abbrev  0x0000000000000000      0x2c0 build/esq_seq.o
 .debug_loc     0x0000000000000000       0x20 build/esq_seq.o
 .debug_aranges
                0x0000000000000000       0x28 build/esq_seq.o
 .debug_ranges  0x0000000000000000       0x60 build/esq_seq.o
 .debug_line    0x0000000000000000      0x4e4 build/esq_seq.o
 .debug_str     0x0000000000000000      0x95a build/esq_seq.o
 .comment       0x0000000000000000       0x69 build/esq_seq.o
 .debug_frame   0x0000000000000000       0x3c build/esq_seq.o
 .ARM.attributes
                0x0000000000000000       0x32 build/esq_seq.o
 .text          0x0000000000000000        0x0 build/terminal_graphics.o
 .data          0x0000000000000000        0x0 build/terminal_graphics.o
 .bss           0x0000000000000000        0x0 build/terminal_graphics.o
 .text.terminal_callback
                0x0000000000000000       0x60 build/terminal_graphics.o
 .text.terminal_cursor
                0x0000000000000000      0x124 build/terminal_graphics.o
 .text.terminal_frame
                0x0000000000000000       0x30 build/terminal_graphics.o
 .text.terminal_header
                0x0000000000000000       0x20 build/terminal_graphics.o
 .text.terminal_body
                0x0000000000000000       0x34 build/terminal_graphics.o
 .text.terminal_basement
                0x0000000000000000       0x40 build/terminal_graphics.o
 .text.terminal_update
                0x0000000000000000       0xa4 build/terminal_graphics.o
 .text.terminal_init
                0x0000000000000000       0x98 build/terminal_graphics.o
 .bss.terminal_redraw
                0x0000000000000000        0x1 build/terminal_graphics.o
 .bss.terminal_status
                0x0000000000000000        0x1 build/terminal_graphics.o
 .rodata.terminal_basement.str1.4
                0x0000000000000000       0x28 build/terminal_graphics.o
 .rodata.terminal_cursor.str1.4
                0x0000000000000000       0x5d build/terminal_graphics.o
 .rodata.terminal_frame.str1.4
                0x0000000000000000      0x625 build/terminal_graphics.o
 .rodata.terminal_header.str1.4
                0x0000000000000000       0x13 build/terminal_graphics.o
 .rodata.terminal_init.str1.4
                0x0000000000000000        0xd build/terminal_graphics.o
 .debug_info    0x0000000000000000     0x1fa0 build/terminal_graphics.o
 .debug_abbrev  0x0000000000000000      0x343 build/terminal_graphics.o
 .debug_loc     0x0000000000000000      0x1c2 build/terminal_graphics.o
 .debug_aranges
                0x0000000000000000       0x58 build/terminal_graphics.o
 .debug_ranges  0x0000000000000000       0x48 build/terminal_graphics.o
 .debug_line    0x0000000000000000      0x648 build/terminal_graphics.o
 .debug_str     0x0000000000000000     0x1140 build/terminal_graphics.o
 .comment       0x0000000000000000       0x69 build/terminal_graphics.o
 .debug_frame   0x0000000000000000      0x14c build/terminal_graphics.o
 .ARM.attributes
                0x0000000000000000       0x32 build/terminal_graphics.o
 COMMON         0x0000000000000000        0x1 build/terminal_graphics.o
 .text          0x0000000000000000        0x0 build/radio_button.o
 .data          0x0000000000000000        0x0 build/radio_button.o
 .bss           0x0000000000000000        0x0 build/radio_button.o
 .text.label_draw
                0x0000000000000000       0x18 build/radio_button.o
 .text.radbtn_draw
                0x0000000000000000        0x4 build/radio_button.o
 .text.radbtn_update
                0x0000000000000000       0x2c build/radio_button.o
 .text.radbtn_check
                0x0000000000000000       0x24 build/radio_button.o
 .text.radbtn_toggle
                0x0000000000000000        0xc build/radio_button.o
 .rodata.label_draw.str1.4
                0x0000000000000000        0x3 build/radio_button.o
 .rodata.radbtn_update.str1.4
                0x0000000000000000        0x8 build/radio_button.o
 .debug_info    0x0000000000000000     0x1136 build/radio_button.o
 .debug_abbrev  0x0000000000000000      0x31d build/radio_button.o
 .debug_loc     0x0000000000000000      0x115 build/radio_button.o
 .debug_aranges
                0x0000000000000000       0x40 build/radio_button.o
 .debug_ranges  0x0000000000000000       0x30 build/radio_button.o
 .debug_line    0x0000000000000000      0x353 build/radio_button.o
 .debug_str     0x0000000000000000      0x9b0 build/radio_button.o
 .comment       0x0000000000000000       0x69 build/radio_button.o
 .debug_frame   0x0000000000000000       0x8c build/radio_button.o
 .ARM.attributes
                0x0000000000000000       0x32 build/radio_button.o
 COMMON         0x0000000000000000       0x22 build/radio_button.o
 .text          0x0000000000000000        0x0 build/esc_codes.o
 .data          0x0000000000000000        0x0 build/esc_codes.o
 .bss           0x0000000000000000        0x0 build/esc_codes.o
 .rodata.dev_stat
                0x0000000000000000        0x5 build/esc_codes.o
 .rodata.down   0x0000000000000000        0x4 build/esc_codes.o
 .rodata.f1     0x0000000000000000        0x6 build/esc_codes.o
 .rodata.f2     0x0000000000000000        0x6 build/esc_codes.o
 .rodata.f3     0x0000000000000000        0x6 build/esc_codes.o
 .rodata.f4     0x0000000000000000        0x6 build/esc_codes.o
 .rodata.f5     0x0000000000000000        0x6 build/esc_codes.o
 .rodata.f6     0x0000000000000000        0x6 build/esc_codes.o
 .rodata.f7     0x0000000000000000        0x6 build/esc_codes.o
 .rodata.f8     0x0000000000000000        0x6 build/esc_codes.o
 .rodata.left   0x0000000000000000        0x4 build/esc_codes.o
 .rodata.right  0x0000000000000000        0x4 build/esc_codes.o
 .rodata.up     0x0000000000000000        0x4 build/esc_codes.o
 .debug_info    0x0000000000000000      0xe77 build/esc_codes.o
 .debug_abbrev  0x0000000000000000      0x20e build/esc_codes.o
 .debug_aranges
                0x0000000000000000       0x18 build/esc_codes.o
 .debug_line    0x0000000000000000      0x266 build/esc_codes.o
 .debug_str     0x0000000000000000      0x8cb build/esc_codes.o
 .comment       0x0000000000000000       0x69 build/esc_codes.o
 .ARM.attributes
                0x0000000000000000       0x37 build/esc_codes.o
 .text          0x0000000000000000        0x0 build/cursor.o
 .data          0x0000000000000000        0x0 build/cursor.o
 .bss           0x0000000000000000        0x0 build/cursor.o
 .text.cursor_update
                0x0000000000000000       0x28 build/cursor.o
 .text.cursor_save
                0x0000000000000000       0x18 build/cursor.o
 .text.cursor_set
                0x0000000000000000       0x10 build/cursor.o
 .rodata.cursor_update.str1.4
                0x0000000000000000        0x9 build/cursor.o
 .debug_info    0x0000000000000000      0xcc3 build/cursor.o
 .debug_abbrev  0x0000000000000000      0x299 build/cursor.o
 .debug_loc     0x0000000000000000       0xbb build/cursor.o
 .debug_aranges
                0x0000000000000000       0x30 build/cursor.o
 .debug_ranges  0x0000000000000000       0x20 build/cursor.o
 .debug_line    0x0000000000000000      0x229 build/cursor.o
 .debug_str     0x0000000000000000      0x61a build/cursor.o
 .comment       0x0000000000000000       0x69 build/cursor.o
 .debug_frame   0x0000000000000000       0x4c build/cursor.o
 .ARM.attributes
                0x0000000000000000       0x32 build/cursor.o
 COMMON         0x0000000000000000        0x4 build/cursor.o
 .text          0x0000000000000000       0x14 build/startup_stm32h743xx.o
 .data          0x0000000000000000        0x0 build/startup_stm32h743xx.o
 .bss           0x0000000000000000        0x0 build/startup_stm32h743xx.o
 .text          0x0000000000000000        0x0 c:/arm_tool/gcc/bin/../lib/gcc/arm-none-eabi/8.2.1/../../../../arm-none-eabi/lib/thumb/v7e-m+dp/hard\libc_nano.a(lib_a-exit.o)
 .data          0x0000000000000000        0x0 c:/arm_tool/gcc/bin/../lib/gcc/arm-none-eabi/8.2.1/../../../../arm-none-eabi/lib/thumb/v7e-m+dp/hard\libc_nano.a(lib_a-exit.o)
 .bss           0x0000000000000000        0x0 c:/arm_tool/gcc/bin/../lib/gcc/arm-none-eabi/8.2.1/../../../../arm-none-eabi/lib/thumb/v7e-m+dp/hard\libc_nano.a(lib_a-exit.o)
 .text.exit     0x0000000000000000       0x28 c:/arm_tool/gcc/bin/../lib/gcc/arm-none-eabi/8.2.1/../../../../arm-none-eabi/lib/thumb/v7e-m+dp/hard\libc_nano.a(lib_a-exit.o)
 .debug_frame   0x0000000000000000       0x28 c:/arm_tool/gcc/bin/../lib/gcc/arm-none-eabi/8.2.1/../../../../arm-none-eabi/lib/thumb/v7e-m+dp/hard\libc_nano.a(lib_a-exit.o)
 .ARM.attributes
                0x0000000000000000       0x32 c:/arm_tool/gcc/bin/../lib/gcc/arm-none-eabi/8.2.1/../../../../arm-none-eabi/lib/thumb/v7e-m+dp/hard\libc_nano.a(lib_a-exit.o)
 .text          0x0000000000000000        0x0 c:/arm_tool/gcc/bin/../lib/gcc/arm-none-eabi/8.2.1/../../../../arm-none-eabi/lib/thumb/v7e-m+dp/hard\libc_nano.a(lib_a-impure.o)
 .data          0x0000000000000000        0x0 c:/arm_tool/gcc/bin/../lib/gcc/arm-none-eabi/8.2.1/../../../../arm-none-eabi/lib/thumb/v7e-m+dp/hard\libc_nano.a(lib_a-impure.o)
 .bss           0x0000000000000000        0x0 c:/arm_tool/gcc/bin/../lib/gcc/arm-none-eabi/8.2.1/../../../../arm-none-eabi/lib/thumb/v7e-m+dp/hard\libc_nano.a(lib_a-impure.o)
 .text          0x0000000000000000        0x0 c:/arm_tool/gcc/bin/../lib/gcc/arm-none-eabi/8.2.1/../../../../arm-none-eabi/lib/thumb/v7e-m+dp/hard\libc_nano.a(lib_a-init.o)
 .data          0x0000000000000000        0x0 c:/arm_tool/gcc/bin/../lib/gcc/arm-none-eabi/8.2.1/../../../../arm-none-eabi/lib/thumb/v7e-m+dp/hard\libc_nano.a(lib_a-init.o)
 .bss           0x0000000000000000        0x0 c:/arm_tool/gcc/bin/../lib/gcc/arm-none-eabi/8.2.1/../../../../arm-none-eabi/lib/thumb/v7e-m+dp/hard\libc_nano.a(lib_a-init.o)
 .text          0x0000000000000000        0x0 c:/arm_tool/gcc/bin/../lib/gcc/arm-none-eabi/8.2.1/../../../../arm-none-eabi/lib/thumb/v7e-m+dp/hard\libc_nano.a(lib_a-memset.o)
 .data          0x0000000000000000        0x0 c:/arm_tool/gcc/bin/../lib/gcc/arm-none-eabi/8.2.1/../../../../arm-none-eabi/lib/thumb/v7e-m+dp/hard\libc_nano.a(lib_a-memset.o)
 .bss           0x0000000000000000        0x0 c:/arm_tool/gcc/bin/../lib/gcc/arm-none-eabi/8.2.1/../../../../arm-none-eabi/lib/thumb/v7e-m+dp/hard\libc_nano.a(lib_a-memset.o)
 .text          0x0000000000000000        0x0 c:/arm_tool/gcc/bin/../lib/gcc/arm-none-eabi/8.2.1/../../../../arm-none-eabi/lib/thumb/v7e-m+dp/hard\libc_nano.a(lib_a-nano-vfprintf_float.o)
 .data          0x0000000000000000        0x0 c:/arm_tool/gcc/bin/../lib/gcc/arm-none-eabi/8.2.1/../../../../arm-none-eabi/lib/thumb/v7e-m+dp/hard\libc_nano.a(lib_a-nano-vfprintf_float.o)
 .bss           0x0000000000000000        0x0 c:/arm_tool/gcc/bin/../lib/gcc/arm-none-eabi/8.2.1/../../../../arm-none-eabi/lib/thumb/v7e-m+dp/hard\libc_nano.a(lib_a-nano-vfprintf_float.o)
 .text          0x0000000000000000        0x0 c:/arm_tool/gcc/bin/../lib/gcc/arm-none-eabi/8.2.1/../../../../arm-none-eabi/lib/thumb/v7e-m+dp/hard\libc_nano.a(lib_a-nano-vfprintf_i.o)
 .data          0x0000000000000000        0x0 c:/arm_tool/gcc/bin/../lib/gcc/arm-none-eabi/8.2.1/../../../../arm-none-eabi/lib/thumb/v7e-m+dp/hard\libc_nano.a(lib_a-nano-vfprintf_i.o)
 .bss           0x0000000000000000        0x0 c:/arm_tool/gcc/bin/../lib/gcc/arm-none-eabi/8.2.1/../../../../arm-none-eabi/lib/thumb/v7e-m+dp/hard\libc_nano.a(lib_a-nano-vfprintf_i.o)
 .text          0x0000000000000000        0x0 c:/arm_tool/gcc/bin/../lib/gcc/arm-none-eabi/8.2.1/../../../../arm-none-eabi/lib/thumb/v7e-m+dp/hard\libc_nano.a(lib_a-printf.o)
 .data          0x0000000000000000        0x0 c:/arm_tool/gcc/bin/../lib/gcc/arm-none-eabi/8.2.1/../../../../arm-none-eabi/lib/thumb/v7e-m+dp/hard\libc_nano.a(lib_a-printf.o)
 .bss           0x0000000000000000        0x0 c:/arm_tool/gcc/bin/../lib/gcc/arm-none-eabi/8.2.1/../../../../arm-none-eabi/lib/thumb/v7e-m+dp/hard\libc_nano.a(lib_a-printf.o)
 .text._printf_r
                0x0000000000000000       0x28 c:/arm_tool/gcc/bin/../lib/gcc/arm-none-eabi/8.2.1/../../../../arm-none-eabi/lib/thumb/v7e-m+dp/hard\libc_nano.a(lib_a-printf.o)
 .text          0x0000000000000000        0x0 c:/arm_tool/gcc/bin/../lib/gcc/arm-none-eabi/8.2.1/../../../../arm-none-eabi/lib/thumb/v7e-m+dp/hard\libc_nano.a(lib_a-putchar.o)
 .data          0x0000000000000000        0x0 c:/arm_tool/gcc/bin/../lib/gcc/arm-none-eabi/8.2.1/../../../../arm-none-eabi/lib/thumb/v7e-m+dp/hard\libc_nano.a(lib_a-putchar.o)
 .bss           0x0000000000000000        0x0 c:/arm_tool/gcc/bin/../lib/gcc/arm-none-eabi/8.2.1/../../../../arm-none-eabi/lib/thumb/v7e-m+dp/hard\libc_nano.a(lib_a-putchar.o)
 .text._putchar_r
                0x0000000000000000       0x1e c:/arm_tool/gcc/bin/../lib/gcc/arm-none-eabi/8.2.1/../../../../arm-none-eabi/lib/thumb/v7e-m+dp/hard\libc_nano.a(lib_a-putchar.o)
 .text.putchar  0x0000000000000000       0x28 c:/arm_tool/gcc/bin/../lib/gcc/arm-none-eabi/8.2.1/../../../../arm-none-eabi/lib/thumb/v7e-m+dp/hard\libc_nano.a(lib_a-putchar.o)
 .debug_frame   0x0000000000000000       0x58 c:/arm_tool/gcc/bin/../lib/gcc/arm-none-eabi/8.2.1/../../../../arm-none-eabi/lib/thumb/v7e-m+dp/hard\libc_nano.a(lib_a-putchar.o)
 .ARM.attributes
                0x0000000000000000       0x32 c:/arm_tool/gcc/bin/../lib/gcc/arm-none-eabi/8.2.1/../../../../arm-none-eabi/lib/thumb/v7e-m+dp/hard\libc_nano.a(lib_a-putchar.o)
 .text          0x0000000000000000        0x0 c:/arm_tool/gcc/bin/../lib/gcc/arm-none-eabi/8.2.1/../../../../arm-none-eabi/lib/thumb/v7e-m+dp/hard\libc_nano.a(lib_a-puts.o)
 .data          0x0000000000000000        0x0 c:/arm_tool/gcc/bin/../lib/gcc/arm-none-eabi/8.2.1/../../../../arm-none-eabi/lib/thumb/v7e-m+dp/hard\libc_nano.a(lib_a-puts.o)
 .bss           0x0000000000000000        0x0 c:/arm_tool/gcc/bin/../lib/gcc/arm-none-eabi/8.2.1/../../../../arm-none-eabi/lib/thumb/v7e-m+dp/hard\libc_nano.a(lib_a-puts.o)
 .text          0x0000000000000000       0x14 c:/arm_tool/gcc/bin/../lib/gcc/arm-none-eabi/8.2.1/../../../../arm-none-eabi/lib/thumb/v7e-m+dp/hard\libc_nano.a(lib_a-strcmp.o)
 .data          0x0000000000000000        0x0 c:/arm_tool/gcc/bin/../lib/gcc/arm-none-eabi/8.2.1/../../../../arm-none-eabi/lib/thumb/v7e-m+dp/hard\libc_nano.a(lib_a-strcmp.o)
 .bss           0x0000000000000000        0x0 c:/arm_tool/gcc/bin/../lib/gcc/arm-none-eabi/8.2.1/../../../../arm-none-eabi/lib/thumb/v7e-m+dp/hard\libc_nano.a(lib_a-strcmp.o)
 .debug_frame   0x0000000000000000       0x20 c:/arm_tool/gcc/bin/../lib/gcc/arm-none-eabi/8.2.1/../../../../arm-none-eabi/lib/thumb/v7e-m+dp/hard\libc_nano.a(lib_a-strcmp.o)
 .ARM.attributes
                0x0000000000000000       0x1c c:/arm_tool/gcc/bin/../lib/gcc/arm-none-eabi/8.2.1/../../../../arm-none-eabi/lib/thumb/v7e-m+dp/hard\libc_nano.a(lib_a-strcmp.o)
 .data          0x0000000000000000        0x0 c:/arm_tool/gcc/bin/../lib/gcc/arm-none-eabi/8.2.1/../../../../arm-none-eabi/lib/thumb/v7e-m+dp/hard\libc_nano.a(lib_a-strlen.o)
 .bss           0x0000000000000000        0x0 c:/arm_tool/gcc/bin/../lib/gcc/arm-none-eabi/8.2.1/../../../../arm-none-eabi/lib/thumb/v7e-m+dp/hard\libc_nano.a(lib_a-strlen.o)
 .text          0x0000000000000000        0x0 c:/arm_tool/gcc/bin/../lib/gcc/arm-none-eabi/8.2.1/../../../../arm-none-eabi/lib/thumb/v7e-m+dp/hard\libc_nano.a(lib_a-wbuf.o)
 .data          0x0000000000000000        0x0 c:/arm_tool/gcc/bin/../lib/gcc/arm-none-eabi/8.2.1/../../../../arm-none-eabi/lib/thumb/v7e-m+dp/hard\libc_nano.a(lib_a-wbuf.o)
 .bss           0x0000000000000000        0x0 c:/arm_tool/gcc/bin/../lib/gcc/arm-none-eabi/8.2.1/../../../../arm-none-eabi/lib/thumb/v7e-m+dp/hard\libc_nano.a(lib_a-wbuf.o)
 .text.__swbuf  0x0000000000000000       0x10 c:/arm_tool/gcc/bin/../lib/gcc/arm-none-eabi/8.2.1/../../../../arm-none-eabi/lib/thumb/v7e-m+dp/hard\libc_nano.a(lib_a-wbuf.o)
 .text          0x0000000000000000        0x0 c:/arm_tool/gcc/bin/../lib/gcc/arm-none-eabi/8.2.1/../../../../arm-none-eabi/lib/thumb/v7e-m+dp/hard\libc_nano.a(lib_a-wsetup.o)
 .data          0x0000000000000000        0x0 c:/arm_tool/gcc/bin/../lib/gcc/arm-none-eabi/8.2.1/../../../../arm-none-eabi/lib/thumb/v7e-m+dp/hard\libc_nano.a(lib_a-wsetup.o)
 .bss           0x0000000000000000        0x0 c:/arm_tool/gcc/bin/../lib/gcc/arm-none-eabi/8.2.1/../../../../arm-none-eabi/lib/thumb/v7e-m+dp/hard\libc_nano.a(lib_a-wsetup.o)
 .text          0x0000000000000000        0x0 c:/arm_tool/gcc/bin/../lib/gcc/arm-none-eabi/8.2.1/../../../../arm-none-eabi/lib/thumb/v7e-m+dp/hard\libc_nano.a(lib_a-dtoa.o)
 .data          0x0000000000000000        0x0 c:/arm_tool/gcc/bin/../lib/gcc/arm-none-eabi/8.2.1/../../../../arm-none-eabi/lib/thumb/v7e-m+dp/hard\libc_nano.a(lib_a-dtoa.o)
 .bss           0x0000000000000000        0x0 c:/arm_tool/gcc/bin/../lib/gcc/arm-none-eabi/8.2.1/../../../../arm-none-eabi/lib/thumb/v7e-m+dp/hard\libc_nano.a(lib_a-dtoa.o)
 .text          0x0000000000000000        0x0 c:/arm_tool/gcc/bin/../lib/gcc/arm-none-eabi/8.2.1/../../../../arm-none-eabi/lib/thumb/v7e-m+dp/hard\libc_nano.a(lib_a-fflush.o)
 .data          0x0000000000000000        0x0 c:/arm_tool/gcc/bin/../lib/gcc/arm-none-eabi/8.2.1/../../../../arm-none-eabi/lib/thumb/v7e-m+dp/hard\libc_nano.a(lib_a-fflush.o)
 .bss           0x0000000000000000        0x0 c:/arm_tool/gcc/bin/../lib/gcc/arm-none-eabi/8.2.1/../../../../arm-none-eabi/lib/thumb/v7e-m+dp/hard\libc_nano.a(lib_a-fflush.o)
 .text.fflush   0x0000000000000000       0x24 c:/arm_tool/gcc/bin/../lib/gcc/arm-none-eabi/8.2.1/../../../../arm-none-eabi/lib/thumb/v7e-m+dp/hard\libc_nano.a(lib_a-fflush.o)
 .text          0x0000000000000000        0x0 c:/arm_tool/gcc/bin/../lib/gcc/arm-none-eabi/8.2.1/../../../../arm-none-eabi/lib/thumb/v7e-m+dp/hard\libc_nano.a(lib_a-findfp.o)
 .data          0x0000000000000000        0x0 c:/arm_tool/gcc/bin/../lib/gcc/arm-none-eabi/8.2.1/../../../../arm-none-eabi/lib/thumb/v7e-m+dp/hard\libc_nano.a(lib_a-findfp.o)
 .bss           0x0000000000000000        0x0 c:/arm_tool/gcc/bin/../lib/gcc/arm-none-eabi/8.2.1/../../../../arm-none-eabi/lib/thumb/v7e-m+dp/hard\libc_nano.a(lib_a-findfp.o)
 .text.__fp_lock
                0x0000000000000000       0x18 c:/arm_tool/gcc/bin/../lib/gcc/arm-none-eabi/8.2.1/../../../../arm-none-eabi/lib/thumb/v7e-m+dp/hard\libc_nano.a(lib_a-findfp.o)
 .text.__fp_unlock
                0x0000000000000000       0x18 c:/arm_tool/gcc/bin/../lib/gcc/arm-none-eabi/8.2.1/../../../../arm-none-eabi/lib/thumb/v7e-m+dp/hard\libc_nano.a(lib_a-findfp.o)
 .text._cleanup
                0x0000000000000000        0xc c:/arm_tool/gcc/bin/../lib/gcc/arm-none-eabi/8.2.1/../../../../arm-none-eabi/lib/thumb/v7e-m+dp/hard\libc_nano.a(lib_a-findfp.o)
 .text.__fp_lock_all
                0x0000000000000000       0x1c c:/arm_tool/gcc/bin/../lib/gcc/arm-none-eabi/8.2.1/../../../../arm-none-eabi/lib/thumb/v7e-m+dp/hard\libc_nano.a(lib_a-findfp.o)
 .text.__fp_unlock_all
                0x0000000000000000       0x1c c:/arm_tool/gcc/bin/../lib/gcc/arm-none-eabi/8.2.1/../../../../arm-none-eabi/lib/thumb/v7e-m+dp/hard\libc_nano.a(lib_a-findfp.o)
 .text          0x0000000000000000        0x0 c:/arm_tool/gcc/bin/../lib/gcc/arm-none-eabi/8.2.1/../../../../arm-none-eabi/lib/thumb/v7e-m+dp/hard\libc_nano.a(lib_a-fwalk.o)
 .data          0x0000000000000000        0x0 c:/arm_tool/gcc/bin/../lib/gcc/arm-none-eabi/8.2.1/../../../../arm-none-eabi/lib/thumb/v7e-m+dp/hard\libc_nano.a(lib_a-fwalk.o)
 .bss           0x0000000000000000        0x0 c:/arm_tool/gcc/bin/../lib/gcc/arm-none-eabi/8.2.1/../../../../arm-none-eabi/lib/thumb/v7e-m+dp/hard\libc_nano.a(lib_a-fwalk.o)
 .text._fwalk   0x0000000000000000       0x38 c:/arm_tool/gcc/bin/../lib/gcc/arm-none-eabi/8.2.1/../../../../arm-none-eabi/lib/thumb/v7e-m+dp/hard\libc_nano.a(lib_a-fwalk.o)
 .text          0x0000000000000000        0x0 c:/arm_tool/gcc/bin/../lib/gcc/arm-none-eabi/8.2.1/../../../../arm-none-eabi/lib/thumb/v7e-m+dp/hard\libc_nano.a(lib_a-localeconv.o)
 .data          0x0000000000000000        0x0 c:/arm_tool/gcc/bin/../lib/gcc/arm-none-eabi/8.2.1/../../../../arm-none-eabi/lib/thumb/v7e-m+dp/hard\libc_nano.a(lib_a-localeconv.o)
 .bss           0x0000000000000000        0x0 c:/arm_tool/gcc/bin/../lib/gcc/arm-none-eabi/8.2.1/../../../../arm-none-eabi/lib/thumb/v7e-m+dp/hard\libc_nano.a(lib_a-localeconv.o)
 .text.__localeconv_l
                0x0000000000000000        0x4 c:/arm_tool/gcc/bin/../lib/gcc/arm-none-eabi/8.2.1/../../../../arm-none-eabi/lib/thumb/v7e-m+dp/hard\libc_nano.a(lib_a-localeconv.o)
 .text.localeconv
                0x0000000000000000        0x8 c:/arm_tool/gcc/bin/../lib/gcc/arm-none-eabi/8.2.1/../../../../arm-none-eabi/lib/thumb/v7e-m+dp/hard\libc_nano.a(lib_a-localeconv.o)
 .text          0x0000000000000000        0x0 c:/arm_tool/gcc/bin/../lib/gcc/arm-none-eabi/8.2.1/../../../../arm-none-eabi/lib/thumb/v7e-m+dp/hard\libc_nano.a(lib_a-lock.o)
 .data          0x0000000000000000        0x0 c:/arm_tool/gcc/bin/../lib/gcc/arm-none-eabi/8.2.1/../../../../arm-none-eabi/lib/thumb/v7e-m+dp/hard\libc_nano.a(lib_a-lock.o)
 .bss           0x0000000000000000        0x0 c:/arm_tool/gcc/bin/../lib/gcc/arm-none-eabi/8.2.1/../../../../arm-none-eabi/lib/thumb/v7e-m+dp/hard\libc_nano.a(lib_a-lock.o)
 .text.__retarget_lock_init
                0x0000000000000000        0x2 c:/arm_tool/gcc/bin/../lib/gcc/arm-none-eabi/8.2.1/../../../../arm-none-eabi/lib/thumb/v7e-m+dp/hard\libc_nano.a(lib_a-lock.o)
 .text.__retarget_lock_close
                0x0000000000000000        0x2 c:/arm_tool/gcc/bin/../lib/gcc/arm-none-eabi/8.2.1/../../../../arm-none-eabi/lib/thumb/v7e-m+dp/hard\libc_nano.a(lib_a-lock.o)
 .text.__retarget_lock_close_recursive
                0x0000000000000000        0x2 c:/arm_tool/gcc/bin/../lib/gcc/arm-none-eabi/8.2.1/../../../../arm-none-eabi/lib/thumb/v7e-m+dp/hard\libc_nano.a(lib_a-lock.o)
 .text.__retarget_lock_acquire
                0x0000000000000000        0x2 c:/arm_tool/gcc/bin/../lib/gcc/arm-none-eabi/8.2.1/../../../../arm-none-eabi/lib/thumb/v7e-m+dp/hard\libc_nano.a(lib_a-lock.o)
 .text.__retarget_lock_try_acquire
                0x0000000000000000        0x4 c:/arm_tool/gcc/bin/../lib/gcc/arm-none-eabi/8.2.1/../../../../arm-none-eabi/lib/thumb/v7e-m+dp/hard\libc_nano.a(lib_a-lock.o)
 .text.__retarget_lock_try_acquire_recursive
                0x0000000000000000        0x4 c:/arm_tool/gcc/bin/../lib/gcc/arm-none-eabi/8.2.1/../../../../arm-none-eabi/lib/thumb/v7e-m+dp/hard\libc_nano.a(lib_a-lock.o)
 .text.__retarget_lock_release
                0x0000000000000000        0x2 c:/arm_tool/gcc/bin/../lib/gcc/arm-none-eabi/8.2.1/../../../../arm-none-eabi/lib/thumb/v7e-m+dp/hard\libc_nano.a(lib_a-lock.o)
 .text          0x0000000000000000        0x0 c:/arm_tool/gcc/bin/../lib/gcc/arm-none-eabi/8.2.1/../../../../arm-none-eabi/lib/thumb/v7e-m+dp/hard\libc_nano.a(lib_a-makebuf.o)
 .data          0x0000000000000000        0x0 c:/arm_tool/gcc/bin/../lib/gcc/arm-none-eabi/8.2.1/../../../../arm-none-eabi/lib/thumb/v7e-m+dp/hard\libc_nano.a(lib_a-makebuf.o)
 .bss           0x0000000000000000        0x0 c:/arm_tool/gcc/bin/../lib/gcc/arm-none-eabi/8.2.1/../../../../arm-none-eabi/lib/thumb/v7e-m+dp/hard\libc_nano.a(lib_a-makebuf.o)
 .text          0x0000000000000000        0x0 c:/arm_tool/gcc/bin/../lib/gcc/arm-none-eabi/8.2.1/../../../../arm-none-eabi/lib/thumb/v7e-m+dp/hard\libc_nano.a(lib_a-malloc.o)
 .data          0x0000000000000000        0x0 c:/arm_tool/gcc/bin/../lib/gcc/arm-none-eabi/8.2.1/../../../../arm-none-eabi/lib/thumb/v7e-m+dp/hard\libc_nano.a(lib_a-malloc.o)
 .bss           0x0000000000000000        0x0 c:/arm_tool/gcc/bin/../lib/gcc/arm-none-eabi/8.2.1/../../../../arm-none-eabi/lib/thumb/v7e-m+dp/hard\libc_nano.a(lib_a-malloc.o)
 .text.free     0x0000000000000000       0x10 c:/arm_tool/gcc/bin/../lib/gcc/arm-none-eabi/8.2.1/../../../../arm-none-eabi/lib/thumb/v7e-m+dp/hard\libc_nano.a(lib_a-malloc.o)
 .data          0x0000000000000000        0x0 c:/arm_tool/gcc/bin/../lib/gcc/arm-none-eabi/8.2.1/../../../../arm-none-eabi/lib/thumb/v7e-m+dp/hard\libc_nano.a(lib_a-memchr.o)
 .bss           0x0000000000000000        0x0 c:/arm_tool/gcc/bin/../lib/gcc/arm-none-eabi/8.2.1/../../../../arm-none-eabi/lib/thumb/v7e-m+dp/hard\libc_nano.a(lib_a-memchr.o)
 .text          0x0000000000000000        0x0 c:/arm_tool/gcc/bin/../lib/gcc/arm-none-eabi/8.2.1/../../../../arm-none-eabi/lib/thumb/v7e-m+dp/hard\libc_nano.a(lib_a-memcpy-stub.o)
 .data          0x0000000000000000        0x0 c:/arm_tool/gcc/bin/../lib/gcc/arm-none-eabi/8.2.1/../../../../arm-none-eabi/lib/thumb/v7e-m+dp/hard\libc_nano.a(lib_a-memcpy-stub.o)
 .bss           0x0000000000000000        0x0 c:/arm_tool/gcc/bin/../lib/gcc/arm-none-eabi/8.2.1/../../../../arm-none-eabi/lib/thumb/v7e-m+dp/hard\libc_nano.a(lib_a-memcpy-stub.o)
 .text          0x0000000000000000        0x0 c:/arm_tool/gcc/bin/../lib/gcc/arm-none-eabi/8.2.1/../../../../arm-none-eabi/lib/thumb/v7e-m+dp/hard\libc_nano.a(lib_a-mprec.o)
 .data          0x0000000000000000        0x0 c:/arm_tool/gcc/bin/../lib/gcc/arm-none-eabi/8.2.1/../../../../arm-none-eabi/lib/thumb/v7e-m+dp/hard\libc_nano.a(lib_a-mprec.o)
 .bss           0x0000000000000000        0x0 c:/arm_tool/gcc/bin/../lib/gcc/arm-none-eabi/8.2.1/../../../../arm-none-eabi/lib/thumb/v7e-m+dp/hard\libc_nano.a(lib_a-mprec.o)
 .text.__s2b    0x0000000000000000       0x7c c:/arm_tool/gcc/bin/../lib/gcc/arm-none-eabi/8.2.1/../../../../arm-none-eabi/lib/thumb/v7e-m+dp/hard\libc_nano.a(lib_a-mprec.o)
 .text.__ulp    0x0000000000000000       0x4c c:/arm_tool/gcc/bin/../lib/gcc/arm-none-eabi/8.2.1/../../../../arm-none-eabi/lib/thumb/v7e-m+dp/hard\libc_nano.a(lib_a-mprec.o)
 .text.__b2d    0x0000000000000000       0xa0 c:/arm_tool/gcc/bin/../lib/gcc/arm-none-eabi/8.2.1/../../../../arm-none-eabi/lib/thumb/v7e-m+dp/hard\libc_nano.a(lib_a-mprec.o)
 .text.__ratio  0x0000000000000000       0x68 c:/arm_tool/gcc/bin/../lib/gcc/arm-none-eabi/8.2.1/../../../../arm-none-eabi/lib/thumb/v7e-m+dp/hard\libc_nano.a(lib_a-mprec.o)
 .text._mprec_log10
                0x0000000000000000       0x28 c:/arm_tool/gcc/bin/../lib/gcc/arm-none-eabi/8.2.1/../../../../arm-none-eabi/lib/thumb/v7e-m+dp/hard\libc_nano.a(lib_a-mprec.o)
 .text.__copybits
                0x0000000000000000       0x34 c:/arm_tool/gcc/bin/../lib/gcc/arm-none-eabi/8.2.1/../../../../arm-none-eabi/lib/thumb/v7e-m+dp/hard\libc_nano.a(lib_a-mprec.o)
 .text.__any_on
                0x0000000000000000       0x42 c:/arm_tool/gcc/bin/../lib/gcc/arm-none-eabi/8.2.1/../../../../arm-none-eabi/lib/thumb/v7e-m+dp/hard\libc_nano.a(lib_a-mprec.o)
 .rodata.__mprec_tinytens
                0x0000000000000000       0x28 c:/arm_tool/gcc/bin/../lib/gcc/arm-none-eabi/8.2.1/../../../../arm-none-eabi/lib/thumb/v7e-m+dp/hard\libc_nano.a(lib_a-mprec.o)
 .text          0x0000000000000000        0x0 c:/arm_tool/gcc/bin/../lib/gcc/arm-none-eabi/8.2.1/../../../../arm-none-eabi/lib/thumb/v7e-m+dp/hard\libc_nano.a(lib_a-nano-callocr.o)
 .data          0x0000000000000000        0x0 c:/arm_tool/gcc/bin/../lib/gcc/arm-none-eabi/8.2.1/../../../../arm-none-eabi/lib/thumb/v7e-m+dp/hard\libc_nano.a(lib_a-nano-callocr.o)
 .bss           0x0000000000000000        0x0 c:/arm_tool/gcc/bin/../lib/gcc/arm-none-eabi/8.2.1/../../../../arm-none-eabi/lib/thumb/v7e-m+dp/hard\libc_nano.a(lib_a-nano-callocr.o)
 .text          0x0000000000000000        0x0 c:/arm_tool/gcc/bin/../lib/gcc/arm-none-eabi/8.2.1/../../../../arm-none-eabi/lib/thumb/v7e-m+dp/hard\libc_nano.a(lib_a-nano-freer.o)
 .data          0x0000000000000000        0x0 c:/arm_tool/gcc/bin/../lib/gcc/arm-none-eabi/8.2.1/../../../../arm-none-eabi/lib/thumb/v7e-m+dp/hard\libc_nano.a(lib_a-nano-freer.o)
 .bss           0x0000000000000000        0x0 c:/arm_tool/gcc/bin/../lib/gcc/arm-none-eabi/8.2.1/../../../../arm-none-eabi/lib/thumb/v7e-m+dp/hard\libc_nano.a(lib_a-nano-freer.o)
 .text          0x0000000000000000        0x0 c:/arm_tool/gcc/bin/../lib/gcc/arm-none-eabi/8.2.1/../../../../arm-none-eabi/lib/thumb/v7e-m+dp/hard\libc_nano.a(lib_a-nano-mallocr.o)
 .data          0x0000000000000000        0x0 c:/arm_tool/gcc/bin/../lib/gcc/arm-none-eabi/8.2.1/../../../../arm-none-eabi/lib/thumb/v7e-m+dp/hard\libc_nano.a(lib_a-nano-mallocr.o)
 .bss           0x0000000000000000        0x0 c:/arm_tool/gcc/bin/../lib/gcc/arm-none-eabi/8.2.1/../../../../arm-none-eabi/lib/thumb/v7e-m+dp/hard\libc_nano.a(lib_a-nano-mallocr.o)
 .text          0x0000000000000000        0x0 c:/arm_tool/gcc/bin/../lib/gcc/arm-none-eabi/8.2.1/../../../../arm-none-eabi/lib/thumb/v7e-m+dp/hard\libc_nano.a(lib_a-nano-vfprintf.o)
 .data          0x0000000000000000        0x0 c:/arm_tool/gcc/bin/../lib/gcc/arm-none-eabi/8.2.1/../../../../arm-none-eabi/lib/thumb/v7e-m+dp/hard\libc_nano.a(lib_a-nano-vfprintf.o)
 .bss           0x0000000000000000        0x0 c:/arm_tool/gcc/bin/../lib/gcc/arm-none-eabi/8.2.1/../../../../arm-none-eabi/lib/thumb/v7e-m+dp/hard\libc_nano.a(lib_a-nano-vfprintf.o)
 .text.__sprint_r
                0x0000000000000000       0x1a c:/arm_tool/gcc/bin/../lib/gcc/arm-none-eabi/8.2.1/../../../../arm-none-eabi/lib/thumb/v7e-m+dp/hard\libc_nano.a(lib_a-nano-vfprintf.o)
 .text.vfprintf
                0x0000000000000000       0x14 c:/arm_tool/gcc/bin/../lib/gcc/arm-none-eabi/8.2.1/../../../../arm-none-eabi/lib/thumb/v7e-m+dp/hard\libc_nano.a(lib_a-nano-vfprintf.o)
 .text          0x0000000000000000        0x0 c:/arm_tool/gcc/bin/../lib/gcc/arm-none-eabi/8.2.1/../../../../arm-none-eabi/lib/thumb/v7e-m+dp/hard\libc_nano.a(lib_a-putc.o)
 .data          0x0000000000000000        0x0 c:/arm_tool/gcc/bin/../lib/gcc/arm-none-eabi/8.2.1/../../../../arm-none-eabi/lib/thumb/v7e-m+dp/hard\libc_nano.a(lib_a-putc.o)
 .bss           0x0000000000000000        0x0 c:/arm_tool/gcc/bin/../lib/gcc/arm-none-eabi/8.2.1/../../../../arm-none-eabi/lib/thumb/v7e-m+dp/hard\libc_nano.a(lib_a-putc.o)
 .text._putc_r  0x0000000000000000       0x90 c:/arm_tool/gcc/bin/../lib/gcc/arm-none-eabi/8.2.1/../../../../arm-none-eabi/lib/thumb/v7e-m+dp/hard\libc_nano.a(lib_a-putc.o)
 .text.putc     0x0000000000000000       0x10 c:/arm_tool/gcc/bin/../lib/gcc/arm-none-eabi/8.2.1/../../../../arm-none-eabi/lib/thumb/v7e-m+dp/hard\libc_nano.a(lib_a-putc.o)
 .debug_frame   0x0000000000000000       0x3c c:/arm_tool/gcc/bin/../lib/gcc/arm-none-eabi/8.2.1/../../../../arm-none-eabi/lib/thumb/v7e-m+dp/hard\libc_nano.a(lib_a-putc.o)
 .ARM.attributes
                0x0000000000000000       0x32 c:/arm_tool/gcc/bin/../lib/gcc/arm-none-eabi/8.2.1/../../../../arm-none-eabi/lib/thumb/v7e-m+dp/hard\libc_nano.a(lib_a-putc.o)
 .text          0x0000000000000000        0x0 c:/arm_tool/gcc/bin/../lib/gcc/arm-none-eabi/8.2.1/../../../../arm-none-eabi/lib/thumb/v7e-m+dp/hard\libc_nano.a(lib_a-sbrkr.o)
 .data          0x0000000000000000        0x0 c:/arm_tool/gcc/bin/../lib/gcc/arm-none-eabi/8.2.1/../../../../arm-none-eabi/lib/thumb/v7e-m+dp/hard\libc_nano.a(lib_a-sbrkr.o)
 .bss           0x0000000000000000        0x0 c:/arm_tool/gcc/bin/../lib/gcc/arm-none-eabi/8.2.1/../../../../arm-none-eabi/lib/thumb/v7e-m+dp/hard\libc_nano.a(lib_a-sbrkr.o)
 .text          0x0000000000000000        0x0 c:/arm_tool/gcc/bin/../lib/gcc/arm-none-eabi/8.2.1/../../../../arm-none-eabi/lib/thumb/v7e-m+dp/hard\libc_nano.a(lib_a-stdio.o)
 .data          0x0000000000000000        0x0 c:/arm_tool/gcc/bin/../lib/gcc/arm-none-eabi/8.2.1/../../../../arm-none-eabi/lib/thumb/v7e-m+dp/hard\libc_nano.a(lib_a-stdio.o)
 .bss           0x0000000000000000        0x0 c:/arm_tool/gcc/bin/../lib/gcc/arm-none-eabi/8.2.1/../../../../arm-none-eabi/lib/thumb/v7e-m+dp/hard\libc_nano.a(lib_a-stdio.o)
 .text.__seofread
                0x0000000000000000        0x4 c:/arm_tool/gcc/bin/../lib/gcc/arm-none-eabi/8.2.1/../../../../arm-none-eabi/lib/thumb/v7e-m+dp/hard\libc_nano.a(lib_a-stdio.o)
 .text          0x0000000000000000        0x0 c:/arm_tool/gcc/bin/../lib/gcc/arm-none-eabi/8.2.1/../../../../arm-none-eabi/lib/thumb/v7e-m+dp/hard\libc_nano.a(lib_a-writer.o)
 .data          0x0000000000000000        0x0 c:/arm_tool/gcc/bin/../lib/gcc/arm-none-eabi/8.2.1/../../../../arm-none-eabi/lib/thumb/v7e-m+dp/hard\libc_nano.a(lib_a-writer.o)
 .bss           0x0000000000000000        0x0 c:/arm_tool/gcc/bin/../lib/gcc/arm-none-eabi/8.2.1/../../../../arm-none-eabi/lib/thumb/v7e-m+dp/hard\libc_nano.a(lib_a-writer.o)
 .text          0x0000000000000000        0x0 c:/arm_tool/gcc/bin/../lib/gcc/arm-none-eabi/8.2.1/../../../../arm-none-eabi/lib/thumb/v7e-m+dp/hard\libc_nano.a(lib_a-closer.o)
 .data          0x0000000000000000        0x0 c:/arm_tool/gcc/bin/../lib/gcc/arm-none-eabi/8.2.1/../../../../arm-none-eabi/lib/thumb/v7e-m+dp/hard\libc_nano.a(lib_a-closer.o)
 .bss           0x0000000000000000        0x0 c:/arm_tool/gcc/bin/../lib/gcc/arm-none-eabi/8.2.1/../../../../arm-none-eabi/lib/thumb/v7e-m+dp/hard\libc_nano.a(lib_a-closer.o)
 .text          0x0000000000000000        0x0 c:/arm_tool/gcc/bin/../lib/gcc/arm-none-eabi/8.2.1/../../../../arm-none-eabi/lib/thumb/v7e-m+dp/hard\libc_nano.a(lib_a-fstatr.o)
 .data          0x0000000000000000        0x0 c:/arm_tool/gcc/bin/../lib/gcc/arm-none-eabi/8.2.1/../../../../arm-none-eabi/lib/thumb/v7e-m+dp/hard\libc_nano.a(lib_a-fstatr.o)
 .bss           0x0000000000000000        0x0 c:/arm_tool/gcc/bin/../lib/gcc/arm-none-eabi/8.2.1/../../../../arm-none-eabi/lib/thumb/v7e-m+dp/hard\libc_nano.a(lib_a-fstatr.o)
 .text          0x0000000000000000        0x0 c:/arm_tool/gcc/bin/../lib/gcc/arm-none-eabi/8.2.1/../../../../arm-none-eabi/lib/thumb/v7e-m+dp/hard\libc_nano.a(lib_a-fvwrite.o)
 .data          0x0000000000000000        0x0 c:/arm_tool/gcc/bin/../lib/gcc/arm-none-eabi/8.2.1/../../../../arm-none-eabi/lib/thumb/v7e-m+dp/hard\libc_nano.a(lib_a-fvwrite.o)
 .bss           0x0000000000000000        0x0 c:/arm_tool/gcc/bin/../lib/gcc/arm-none-eabi/8.2.1/../../../../arm-none-eabi/lib/thumb/v7e-m+dp/hard\libc_nano.a(lib_a-fvwrite.o)
 .text.__sfvwrite_r
                0x0000000000000000      0x2a0 c:/arm_tool/gcc/bin/../lib/gcc/arm-none-eabi/8.2.1/../../../../arm-none-eabi/lib/thumb/v7e-m+dp/hard\libc_nano.a(lib_a-fvwrite.o)
 .debug_frame   0x0000000000000000       0x3c c:/arm_tool/gcc/bin/../lib/gcc/arm-none-eabi/8.2.1/../../../../arm-none-eabi/lib/thumb/v7e-m+dp/hard\libc_nano.a(lib_a-fvwrite.o)
 .ARM.attributes
                0x0000000000000000       0x32 c:/arm_tool/gcc/bin/../lib/gcc/arm-none-eabi/8.2.1/../../../../arm-none-eabi/lib/thumb/v7e-m+dp/hard\libc_nano.a(lib_a-fvwrite.o)
 .text          0x0000000000000000        0x0 c:/arm_tool/gcc/bin/../lib/gcc/arm-none-eabi/8.2.1/../../../../arm-none-eabi/lib/thumb/v7e-m+dp/hard\libc_nano.a(lib_a-isattyr.o)
 .data          0x0000000000000000        0x0 c:/arm_tool/gcc/bin/../lib/gcc/arm-none-eabi/8.2.1/../../../../arm-none-eabi/lib/thumb/v7e-m+dp/hard\libc_nano.a(lib_a-isattyr.o)
 .bss           0x0000000000000000        0x0 c:/arm_tool/gcc/bin/../lib/gcc/arm-none-eabi/8.2.1/../../../../arm-none-eabi/lib/thumb/v7e-m+dp/hard\libc_nano.a(lib_a-isattyr.o)
 .text          0x0000000000000000        0x0 c:/arm_tool/gcc/bin/../lib/gcc/arm-none-eabi/8.2.1/../../../../arm-none-eabi/lib/thumb/v7e-m+dp/hard\libc_nano.a(lib_a-locale.o)
 .data          0x0000000000000000        0x0 c:/arm_tool/gcc/bin/../lib/gcc/arm-none-eabi/8.2.1/../../../../arm-none-eabi/lib/thumb/v7e-m+dp/hard\libc_nano.a(lib_a-locale.o)
 .bss           0x0000000000000000        0x0 c:/arm_tool/gcc/bin/../lib/gcc/arm-none-eabi/8.2.1/../../../../arm-none-eabi/lib/thumb/v7e-m+dp/hard\libc_nano.a(lib_a-locale.o)
 .text._setlocale_r
                0x0000000000000000       0x40 c:/arm_tool/gcc/bin/../lib/gcc/arm-none-eabi/8.2.1/../../../../arm-none-eabi/lib/thumb/v7e-m+dp/hard\libc_nano.a(lib_a-locale.o)
 .text.__locale_mb_cur_max
                0x0000000000000000        0xc c:/arm_tool/gcc/bin/../lib/gcc/arm-none-eabi/8.2.1/../../../../arm-none-eabi/lib/thumb/v7e-m+dp/hard\libc_nano.a(lib_a-locale.o)
 .text.setlocale
                0x0000000000000000       0x10 c:/arm_tool/gcc/bin/../lib/gcc/arm-none-eabi/8.2.1/../../../../arm-none-eabi/lib/thumb/v7e-m+dp/hard\libc_nano.a(lib_a-locale.o)
 .bss._PathLocale
                0x0000000000000000        0x4 c:/arm_tool/gcc/bin/../lib/gcc/arm-none-eabi/8.2.1/../../../../arm-none-eabi/lib/thumb/v7e-m+dp/hard\libc_nano.a(lib_a-locale.o)
 .text          0x0000000000000000        0x0 c:/arm_tool/gcc/bin/../lib/gcc/arm-none-eabi/8.2.1/../../../../arm-none-eabi/lib/thumb/v7e-m+dp/hard\libc_nano.a(lib_a-lseekr.o)
 .data          0x0000000000000000        0x0 c:/arm_tool/gcc/bin/../lib/gcc/arm-none-eabi/8.2.1/../../../../arm-none-eabi/lib/thumb/v7e-m+dp/hard\libc_nano.a(lib_a-lseekr.o)
 .bss           0x0000000000000000        0x0 c:/arm_tool/gcc/bin/../lib/gcc/arm-none-eabi/8.2.1/../../../../arm-none-eabi/lib/thumb/v7e-m+dp/hard\libc_nano.a(lib_a-lseekr.o)
 .text          0x0000000000000000        0x0 c:/arm_tool/gcc/bin/../lib/gcc/arm-none-eabi/8.2.1/../../../../arm-none-eabi/lib/thumb/v7e-m+dp/hard\libc_nano.a(lib_a-mbtowc_r.o)
 .data          0x0000000000000000        0x0 c:/arm_tool/gcc/bin/../lib/gcc/arm-none-eabi/8.2.1/../../../../arm-none-eabi/lib/thumb/v7e-m+dp/hard\libc_nano.a(lib_a-mbtowc_r.o)
 .bss           0x0000000000000000        0x0 c:/arm_tool/gcc/bin/../lib/gcc/arm-none-eabi/8.2.1/../../../../arm-none-eabi/lib/thumb/v7e-m+dp/hard\libc_nano.a(lib_a-mbtowc_r.o)
 .text._mbtowc_r
                0x0000000000000000       0x14 c:/arm_tool/gcc/bin/../lib/gcc/arm-none-eabi/8.2.1/../../../../arm-none-eabi/lib/thumb/v7e-m+dp/hard\libc_nano.a(lib_a-mbtowc_r.o)
 .text          0x0000000000000000        0x0 c:/arm_tool/gcc/bin/../lib/gcc/arm-none-eabi/8.2.1/../../../../arm-none-eabi/lib/thumb/v7e-m+dp/hard\libc_nano.a(lib_a-memmove.o)
 .data          0x0000000000000000        0x0 c:/arm_tool/gcc/bin/../lib/gcc/arm-none-eabi/8.2.1/../../../../arm-none-eabi/lib/thumb/v7e-m+dp/hard\libc_nano.a(lib_a-memmove.o)
 .bss           0x0000000000000000        0x0 c:/arm_tool/gcc/bin/../lib/gcc/arm-none-eabi/8.2.1/../../../../arm-none-eabi/lib/thumb/v7e-m+dp/hard\libc_nano.a(lib_a-memmove.o)
 .text.memmove  0x0000000000000000       0x34 c:/arm_tool/gcc/bin/../lib/gcc/arm-none-eabi/8.2.1/../../../../arm-none-eabi/lib/thumb/v7e-m+dp/hard\libc_nano.a(lib_a-memmove.o)
 .debug_frame   0x0000000000000000       0x28 c:/arm_tool/gcc/bin/../lib/gcc/arm-none-eabi/8.2.1/../../../../arm-none-eabi/lib/thumb/v7e-m+dp/hard\libc_nano.a(lib_a-memmove.o)
 .ARM.attributes
                0x0000000000000000       0x32 c:/arm_tool/gcc/bin/../lib/gcc/arm-none-eabi/8.2.1/../../../../arm-none-eabi/lib/thumb/v7e-m+dp/hard\libc_nano.a(lib_a-memmove.o)
 .text          0x0000000000000000        0x0 c:/arm_tool/gcc/bin/../lib/gcc/arm-none-eabi/8.2.1/../../../../arm-none-eabi/lib/thumb/v7e-m+dp/hard\libc_nano.a(lib_a-mlock.o)
 .data          0x0000000000000000        0x0 c:/arm_tool/gcc/bin/../lib/gcc/arm-none-eabi/8.2.1/../../../../arm-none-eabi/lib/thumb/v7e-m+dp/hard\libc_nano.a(lib_a-mlock.o)
 .bss           0x0000000000000000        0x0 c:/arm_tool/gcc/bin/../lib/gcc/arm-none-eabi/8.2.1/../../../../arm-none-eabi/lib/thumb/v7e-m+dp/hard\libc_nano.a(lib_a-mlock.o)
 .text          0x0000000000000000        0x0 c:/arm_tool/gcc/bin/../lib/gcc/arm-none-eabi/8.2.1/../../../../arm-none-eabi/lib/thumb/v7e-m+dp/hard\libc_nano.a(lib_a-nano-reallocr.o)
 .data          0x0000000000000000        0x0 c:/arm_tool/gcc/bin/../lib/gcc/arm-none-eabi/8.2.1/../../../../arm-none-eabi/lib/thumb/v7e-m+dp/hard\libc_nano.a(lib_a-nano-reallocr.o)
 .bss           0x0000000000000000        0x0 c:/arm_tool/gcc/bin/../lib/gcc/arm-none-eabi/8.2.1/../../../../arm-none-eabi/lib/thumb/v7e-m+dp/hard\libc_nano.a(lib_a-nano-reallocr.o)
 .text._realloc_r
                0x0000000000000000       0x4c c:/arm_tool/gcc/bin/../lib/gcc/arm-none-eabi/8.2.1/../../../../arm-none-eabi/lib/thumb/v7e-m+dp/hard\libc_nano.a(lib_a-nano-reallocr.o)
 .debug_frame   0x0000000000000000       0x3c c:/arm_tool/gcc/bin/../lib/gcc/arm-none-eabi/8.2.1/../../../../arm-none-eabi/lib/thumb/v7e-m+dp/hard\libc_nano.a(lib_a-nano-reallocr.o)
 .ARM.attributes
                0x0000000000000000       0x32 c:/arm_tool/gcc/bin/../lib/gcc/arm-none-eabi/8.2.1/../../../../arm-none-eabi/lib/thumb/v7e-m+dp/hard\libc_nano.a(lib_a-nano-reallocr.o)
 .text          0x0000000000000000        0x0 c:/arm_tool/gcc/bin/../lib/gcc/arm-none-eabi/8.2.1/../../../../arm-none-eabi/lib/thumb/v7e-m+dp/hard\libc_nano.a(lib_a-readr.o)
 .data          0x0000000000000000        0x0 c:/arm_tool/gcc/bin/../lib/gcc/arm-none-eabi/8.2.1/../../../../arm-none-eabi/lib/thumb/v7e-m+dp/hard\libc_nano.a(lib_a-readr.o)
 .bss           0x0000000000000000        0x0 c:/arm_tool/gcc/bin/../lib/gcc/arm-none-eabi/8.2.1/../../../../arm-none-eabi/lib/thumb/v7e-m+dp/hard\libc_nano.a(lib_a-readr.o)
 .text          0x0000000000000000        0x0 c:/arm_tool/gcc/bin/../lib/gcc/arm-none-eabi/8.2.1/../../../../arm-none-eabi/lib/thumb/v7e-m+dp/hard\libc_nano.a(lib_a-reent.o)
 .data          0x0000000000000000        0x0 c:/arm_tool/gcc/bin/../lib/gcc/arm-none-eabi/8.2.1/../../../../arm-none-eabi/lib/thumb/v7e-m+dp/hard\libc_nano.a(lib_a-reent.o)
 .bss           0x0000000000000000        0x0 c:/arm_tool/gcc/bin/../lib/gcc/arm-none-eabi/8.2.1/../../../../arm-none-eabi/lib/thumb/v7e-m+dp/hard\libc_nano.a(lib_a-reent.o)
 .text.cleanup_glue
                0x0000000000000000       0x1a c:/arm_tool/gcc/bin/../lib/gcc/arm-none-eabi/8.2.1/../../../../arm-none-eabi/lib/thumb/v7e-m+dp/hard\libc_nano.a(lib_a-reent.o)
 .text._reclaim_reent
                0x0000000000000000       0xb8 c:/arm_tool/gcc/bin/../lib/gcc/arm-none-eabi/8.2.1/../../../../arm-none-eabi/lib/thumb/v7e-m+dp/hard\libc_nano.a(lib_a-reent.o)
 .text          0x0000000000000000        0x0 c:/arm_tool/gcc/bin/../lib/gcc/arm-none-eabi/8.2.1/../../../../arm-none-eabi/lib/thumb/v7e-m+dp/hard\libc_nano.a(lib_a-wctomb_r.o)
 .data          0x0000000000000000        0x0 c:/arm_tool/gcc/bin/../lib/gcc/arm-none-eabi/8.2.1/../../../../arm-none-eabi/lib/thumb/v7e-m+dp/hard\libc_nano.a(lib_a-wctomb_r.o)
 .bss           0x0000000000000000        0x0 c:/arm_tool/gcc/bin/../lib/gcc/arm-none-eabi/8.2.1/../../../../arm-none-eabi/lib/thumb/v7e-m+dp/hard\libc_nano.a(lib_a-wctomb_r.o)
 .text._wctomb_r
                0x0000000000000000       0x14 c:/arm_tool/gcc/bin/../lib/gcc/arm-none-eabi/8.2.1/../../../../arm-none-eabi/lib/thumb/v7e-m+dp/hard\libc_nano.a(lib_a-wctomb_r.o)
 .text          0x0000000000000000        0x0 c:/arm_tool/gcc/bin/../lib/gcc/arm-none-eabi/8.2.1/../../../../arm-none-eabi/lib/thumb/v7e-m+dp/hard\libc_nano.a(lib_a-ctype_.o)
 .data          0x0000000000000000        0x0 c:/arm_tool/gcc/bin/../lib/gcc/arm-none-eabi/8.2.1/../../../../arm-none-eabi/lib/thumb/v7e-m+dp/hard\libc_nano.a(lib_a-ctype_.o)
 .bss           0x0000000000000000        0x0 c:/arm_tool/gcc/bin/../lib/gcc/arm-none-eabi/8.2.1/../../../../arm-none-eabi/lib/thumb/v7e-m+dp/hard\libc_nano.a(lib_a-ctype_.o)
 .text          0x0000000000000000        0x0 c:/arm_tool/gcc/bin/../lib/gcc/arm-none-eabi/8.2.1/../../../../arm-none-eabi/lib/thumb/v7e-m+dp/hard\libc_nano.a(lib_a-nano-msizer.o)
 .data          0x0000000000000000        0x0 c:/arm_tool/gcc/bin/../lib/gcc/arm-none-eabi/8.2.1/../../../../arm-none-eabi/lib/thumb/v7e-m+dp/hard\libc_nano.a(lib_a-nano-msizer.o)
 .bss           0x0000000000000000        0x0 c:/arm_tool/gcc/bin/../lib/gcc/arm-none-eabi/8.2.1/../../../../arm-none-eabi/lib/thumb/v7e-m+dp/hard\libc_nano.a(lib_a-nano-msizer.o)
 .text._malloc_usable_size_r
                0x0000000000000000       0x10 c:/arm_tool/gcc/bin/../lib/gcc/arm-none-eabi/8.2.1/../../../../arm-none-eabi/lib/thumb/v7e-m+dp/hard\libc_nano.a(lib_a-nano-msizer.o)
 .debug_frame   0x0000000000000000       0x20 c:/arm_tool/gcc/bin/../lib/gcc/arm-none-eabi/8.2.1/../../../../arm-none-eabi/lib/thumb/v7e-m+dp/hard\libc_nano.a(lib_a-nano-msizer.o)
 .ARM.attributes
                0x0000000000000000       0x32 c:/arm_tool/gcc/bin/../lib/gcc/arm-none-eabi/8.2.1/../../../../arm-none-eabi/lib/thumb/v7e-m+dp/hard\libc_nano.a(lib_a-nano-msizer.o)
 .text          0x0000000000000000        0x0 c:/arm_tool/gcc/bin/../lib/gcc/arm-none-eabi/8.2.1/../../../../arm-none-eabi/lib/thumb/v7e-m+dp/hard\libnosys.a(close.o)
 .data          0x0000000000000000        0x0 c:/arm_tool/gcc/bin/../lib/gcc/arm-none-eabi/8.2.1/../../../../arm-none-eabi/lib/thumb/v7e-m+dp/hard\libnosys.a(close.o)
 .bss           0x0000000000000000        0x0 c:/arm_tool/gcc/bin/../lib/gcc/arm-none-eabi/8.2.1/../../../../arm-none-eabi/lib/thumb/v7e-m+dp/hard\libnosys.a(close.o)
 .text          0x0000000000000000        0x0 c:/arm_tool/gcc/bin/../lib/gcc/arm-none-eabi/8.2.1/../../../../arm-none-eabi/lib/thumb/v7e-m+dp/hard\libnosys.a(fstat.o)
 .data          0x0000000000000000        0x0 c:/arm_tool/gcc/bin/../lib/gcc/arm-none-eabi/8.2.1/../../../../arm-none-eabi/lib/thumb/v7e-m+dp/hard\libnosys.a(fstat.o)
 .bss           0x0000000000000000        0x0 c:/arm_tool/gcc/bin/../lib/gcc/arm-none-eabi/8.2.1/../../../../arm-none-eabi/lib/thumb/v7e-m+dp/hard\libnosys.a(fstat.o)
 .text          0x0000000000000000        0x0 c:/arm_tool/gcc/bin/../lib/gcc/arm-none-eabi/8.2.1/../../../../arm-none-eabi/lib/thumb/v7e-m+dp/hard\libnosys.a(isatty.o)
 .data          0x0000000000000000        0x0 c:/arm_tool/gcc/bin/../lib/gcc/arm-none-eabi/8.2.1/../../../../arm-none-eabi/lib/thumb/v7e-m+dp/hard\libnosys.a(isatty.o)
 .bss           0x0000000000000000        0x0 c:/arm_tool/gcc/bin/../lib/gcc/arm-none-eabi/8.2.1/../../../../arm-none-eabi/lib/thumb/v7e-m+dp/hard\libnosys.a(isatty.o)
 .text          0x0000000000000000        0x0 c:/arm_tool/gcc/bin/../lib/gcc/arm-none-eabi/8.2.1/../../../../arm-none-eabi/lib/thumb/v7e-m+dp/hard\libnosys.a(lseek.o)
 .data          0x0000000000000000        0x0 c:/arm_tool/gcc/bin/../lib/gcc/arm-none-eabi/8.2.1/../../../../arm-none-eabi/lib/thumb/v7e-m+dp/hard\libnosys.a(lseek.o)
 .bss           0x0000000000000000        0x0 c:/arm_tool/gcc/bin/../lib/gcc/arm-none-eabi/8.2.1/../../../../arm-none-eabi/lib/thumb/v7e-m+dp/hard\libnosys.a(lseek.o)
 .text          0x0000000000000000        0x0 c:/arm_tool/gcc/bin/../lib/gcc/arm-none-eabi/8.2.1/../../../../arm-none-eabi/lib/thumb/v7e-m+dp/hard\libnosys.a(read.o)
 .data          0x0000000000000000        0x0 c:/arm_tool/gcc/bin/../lib/gcc/arm-none-eabi/8.2.1/../../../../arm-none-eabi/lib/thumb/v7e-m+dp/hard\libnosys.a(read.o)
 .bss           0x0000000000000000        0x0 c:/arm_tool/gcc/bin/../lib/gcc/arm-none-eabi/8.2.1/../../../../arm-none-eabi/lib/thumb/v7e-m+dp/hard\libnosys.a(read.o)
 .text          0x0000000000000000        0x0 c:/arm_tool/gcc/bin/../lib/gcc/arm-none-eabi/8.2.1/../../../../arm-none-eabi/lib/thumb/v7e-m+dp/hard\libnosys.a(sbrk.o)
 .data          0x0000000000000000        0x0 c:/arm_tool/gcc/bin/../lib/gcc/arm-none-eabi/8.2.1/../../../../arm-none-eabi/lib/thumb/v7e-m+dp/hard\libnosys.a(sbrk.o)
 .bss           0x0000000000000000        0x0 c:/arm_tool/gcc/bin/../lib/gcc/arm-none-eabi/8.2.1/../../../../arm-none-eabi/lib/thumb/v7e-m+dp/hard\libnosys.a(sbrk.o)
 .text          0x0000000000000000        0x0 c:/arm_tool/gcc/bin/../lib/gcc/arm-none-eabi/8.2.1/../../../../arm-none-eabi/lib/thumb/v7e-m+dp/hard\libnosys.a(_exit.o)
 .data          0x0000000000000000        0x0 c:/arm_tool/gcc/bin/../lib/gcc/arm-none-eabi/8.2.1/../../../../arm-none-eabi/lib/thumb/v7e-m+dp/hard\libnosys.a(_exit.o)
 .bss           0x0000000000000000        0x0 c:/arm_tool/gcc/bin/../lib/gcc/arm-none-eabi/8.2.1/../../../../arm-none-eabi/lib/thumb/v7e-m+dp/hard\libnosys.a(_exit.o)
 .text._exit    0x0000000000000000        0x4 c:/arm_tool/gcc/bin/../lib/gcc/arm-none-eabi/8.2.1/../../../../arm-none-eabi/lib/thumb/v7e-m+dp/hard\libnosys.a(_exit.o)
 .debug_frame   0x0000000000000000       0x20 c:/arm_tool/gcc/bin/../lib/gcc/arm-none-eabi/8.2.1/../../../../arm-none-eabi/lib/thumb/v7e-m+dp/hard\libnosys.a(_exit.o)
 .ARM.attributes
                0x0000000000000000       0x32 c:/arm_tool/gcc/bin/../lib/gcc/arm-none-eabi/8.2.1/../../../../arm-none-eabi/lib/thumb/v7e-m+dp/hard\libnosys.a(_exit.o)
 .text          0x0000000000000000       0xa0 c:/arm_tool/gcc/bin/../lib/gcc/arm-none-eabi/8.2.1/thumb/v7e-m+dp/hard\libgcc.a(_aeabi_ldivmod.o)
 .data          0x0000000000000000        0x0 c:/arm_tool/gcc/bin/../lib/gcc/arm-none-eabi/8.2.1/thumb/v7e-m+dp/hard\libgcc.a(_aeabi_ldivmod.o)
 .bss           0x0000000000000000        0x0 c:/arm_tool/gcc/bin/../lib/gcc/arm-none-eabi/8.2.1/thumb/v7e-m+dp/hard\libgcc.a(_aeabi_ldivmod.o)
 .debug_frame   0x0000000000000000       0x44 c:/arm_tool/gcc/bin/../lib/gcc/arm-none-eabi/8.2.1/thumb/v7e-m+dp/hard\libgcc.a(_aeabi_ldivmod.o)
 .ARM.attributes
                0x0000000000000000       0x1e c:/arm_tool/gcc/bin/../lib/gcc/arm-none-eabi/8.2.1/thumb/v7e-m+dp/hard\libgcc.a(_aeabi_ldivmod.o)
 .data          0x0000000000000000        0x0 c:/arm_tool/gcc/bin/../lib/gcc/arm-none-eabi/8.2.1/thumb/v7e-m+dp/hard\libgcc.a(_aeabi_uldivmod.o)
 .bss           0x0000000000000000        0x0 c:/arm_tool/gcc/bin/../lib/gcc/arm-none-eabi/8.2.1/thumb/v7e-m+dp/hard\libgcc.a(_aeabi_uldivmod.o)
 .text          0x0000000000000000        0x0 c:/arm_tool/gcc/bin/../lib/gcc/arm-none-eabi/8.2.1/thumb/v7e-m+dp/hard\libgcc.a(_udivmoddi4.o)
 .data          0x0000000000000000        0x0 c:/arm_tool/gcc/bin/../lib/gcc/arm-none-eabi/8.2.1/thumb/v7e-m+dp/hard\libgcc.a(_udivmoddi4.o)
 .bss           0x0000000000000000        0x0 c:/arm_tool/gcc/bin/../lib/gcc/arm-none-eabi/8.2.1/thumb/v7e-m+dp/hard\libgcc.a(_udivmoddi4.o)
 .ARM.extab.text.__udivmoddi4
                0x0000000000000000        0x0 c:/arm_tool/gcc/bin/../lib/gcc/arm-none-eabi/8.2.1/thumb/v7e-m+dp/hard\libgcc.a(_udivmoddi4.o)
 .data          0x0000000000000000        0x0 c:/arm_tool/gcc/bin/../lib/gcc/arm-none-eabi/8.2.1/thumb/v7e-m+dp/hard\libgcc.a(_dvmd_tls.o)
 .bss           0x0000000000000000        0x0 c:/arm_tool/gcc/bin/../lib/gcc/arm-none-eabi/8.2.1/thumb/v7e-m+dp/hard\libgcc.a(_dvmd_tls.o)
 .text          0x0000000000000000        0x0 c:/arm_tool/gcc/bin/../lib/gcc/arm-none-eabi/8.2.1/thumb/v7e-m+dp/hard/crtend.o
 .data          0x0000000000000000        0x0 c:/arm_tool/gcc/bin/../lib/gcc/arm-none-eabi/8.2.1/thumb/v7e-m+dp/hard/crtend.o
 .bss           0x0000000000000000        0x0 c:/arm_tool/gcc/bin/../lib/gcc/arm-none-eabi/8.2.1/thumb/v7e-m+dp/hard/crtend.o
 .eh_frame      0x0000000000000000        0x4 c:/arm_tool/gcc/bin/../lib/gcc/arm-none-eabi/8.2.1/thumb/v7e-m+dp/hard/crtend.o
 .text          0x0000000000000000        0x0 c:/arm_tool/gcc/bin/../lib/gcc/arm-none-eabi/8.2.1/thumb/v7e-m+dp/hard/crtn.o
 .data          0x0000000000000000        0x0 c:/arm_tool/gcc/bin/../lib/gcc/arm-none-eabi/8.2.1/thumb/v7e-m+dp/hard/crtn.o
 .bss           0x0000000000000000        0x0 c:/arm_tool/gcc/bin/../lib/gcc/arm-none-eabi/8.2.1/thumb/v7e-m+dp/hard/crtn.o

Memory Configuration

Name             Origin             Length             Attributes
DTCMRAM          0x0000000020000000 0x0000000000020000 xrw
RAM_D1           0x0000000024000000 0x0000000000080000 xrw
RAM_D2           0x0000000030000000 0x0000000000048000 xrw
RAM_D3           0x0000000038000000 0x0000000000010000 xrw
ITCMRAM          0x0000000000000000 0x0000000000010000 xrw
FLASH            0x0000000008000000 0x0000000000200000 xr
*default*        0x0000000000000000 0xffffffffffffffff

Linker script and memory map

LOAD c:/arm_tool/gcc/bin/../lib/gcc/arm-none-eabi/8.2.1/thumb/v7e-m+dp/hard/crti.o
LOAD c:/arm_tool/gcc/bin/../lib/gcc/arm-none-eabi/8.2.1/thumb/v7e-m+dp/hard/crtbegin.o
LOAD c:/arm_tool/gcc/bin/../lib/gcc/arm-none-eabi/8.2.1/../../../../arm-none-eabi/lib/thumb/v7e-m+dp/hard/crt0.o
LOAD build/main.o
LOAD build/gpio.o
LOAD build/usart.o
LOAD build/stm32h7xx_it.o
LOAD build/stm32h7xx_hal_msp.o
LOAD build/usb_device.o
LOAD build/usbd_desc.o
LOAD build/usbd_cdc_if.o
LOAD build/usbd_conf.o
LOAD build/stm32h7xx_hal_pcd.o
LOAD build/stm32h7xx_hal_pcd_ex.o
LOAD build/stm32h7xx_ll_usb.o
LOAD build/stm32h7xx_hal_rcc.o
LOAD build/stm32h7xx_hal_rcc_ex.o
LOAD build/stm32h7xx_hal_flash.o
LOAD build/stm32h7xx_hal_flash_ex.o
LOAD build/stm32h7xx_hal_gpio.o
LOAD build/stm32h7xx_hal_hsem.o
LOAD build/stm32h7xx_hal_dma.o
LOAD build/stm32h7xx_hal_dma_ex.o
LOAD build/stm32h7xx_hal_mdma.o
LOAD build/stm32h7xx_hal_pwr.o
LOAD build/stm32h7xx_hal_pwr_ex.o
LOAD build/stm32h7xx_hal_cortex.o
LOAD build/stm32h7xx_hal.o
LOAD build/stm32h7xx_hal_i2c.o
LOAD build/stm32h7xx_hal_i2c_ex.o
LOAD build/stm32h7xx_hal_exti.o
LOAD build/stm32h7xx_hal_tim.o
LOAD build/stm32h7xx_hal_tim_ex.o
LOAD build/stm32h7xx_hal_uart.o
LOAD build/stm32h7xx_hal_uart_ex.o
LOAD build/system_stm32h7xx.o
LOAD build/usbd_core.o
LOAD build/usbd_ctlreq.o
LOAD build/usbd_ioreq.o
LOAD build/usbd_cdc.o
LOAD build/dma.o
LOAD build/usbd_uvc.o
LOAD build/usbd_uvc_if.o
LOAD build/rng.o
LOAD build/stm32h7xx_hal_rng.o
LOAD build/stm32h7xx_hal_rng_ex.o
LOAD build/dcmi.o
LOAD build/stm32h7xx_hal_dcmi.o
LOAD build/retarget.o
LOAD build/esq_seq.o
LOAD build/terminal_graphics.o
LOAD build/radio_button.o
LOAD build/esc_codes.o
LOAD build/cursor.o
LOAD build/startup_stm32h743xx.o
LOAD c:/arm_tool/gcc/bin/../lib/gcc/arm-none-eabi/8.2.1/../../../../arm-none-eabi/lib/thumb/v7e-m+dp/hard\libc_nano.a
LOAD c:/arm_tool/gcc/bin/../lib/gcc/arm-none-eabi/8.2.1/../../../../arm-none-eabi/lib/thumb/v7e-m+dp/hard\libm.a
LOAD c:/arm_tool/gcc/bin/../lib/gcc/arm-none-eabi/8.2.1/../../../../arm-none-eabi/lib/thumb/v7e-m+dp/hard\libnosys.a
START GROUP
LOAD c:/arm_tool/gcc/bin/../lib/gcc/arm-none-eabi/8.2.1/thumb/v7e-m+dp/hard\libgcc.a
LOAD c:/arm_tool/gcc/bin/../lib/gcc/arm-none-eabi/8.2.1/../../../../arm-none-eabi/lib/thumb/v7e-m+dp/hard\libc_nano.a
END GROUP
START GROUP
LOAD c:/arm_tool/gcc/bin/../lib/gcc/arm-none-eabi/8.2.1/thumb/v7e-m+dp/hard\libgcc.a
LOAD c:/arm_tool/gcc/bin/../lib/gcc/arm-none-eabi/8.2.1/../../../../arm-none-eabi/lib/thumb/v7e-m+dp/hard\libc_nano.a
END GROUP
LOAD c:/arm_tool/gcc/bin/../lib/gcc/arm-none-eabi/8.2.1/thumb/v7e-m+dp/hard/crtend.o
LOAD c:/arm_tool/gcc/bin/../lib/gcc/arm-none-eabi/8.2.1/thumb/v7e-m+dp/hard/crtn.o
                0x0000000020020000                _estack = 0x20020000
                0x0000000000000400                _Min_Heap_Size = 0x400
                0x0000000000000800                _Min_Stack_Size = 0x800

.buffers        0x0000000024000000    0x26824
                0x0000000024000000                . = ALIGN (0x4)
 *(.ITCMRAM_buf*)
                0x0000000024000000                . = ALIGN (0x4)
 *(.DTCMRAM_buf*)
 .DTCMRAM_buf   0x0000000024000000       0x20 build/main.o
                0x0000000024000000                zx_pix_tab
                0x0000000024000020                . = ALIGN (0x4)
 *(.RAM_D1_buf*)
 .RAM_D1_buf    0x0000000024000020    0x25804 build/main.o
                0x0000000024000020                rx
                0x0000000024000024                ucv_buf
 .RAM_D1_buf    0x0000000024025824     0x1000 build/retarget.o
                0x0000000024025824                buf

.bufferss       0x0000000030000000    0x3dc00
                0x0000000030000000                . = ALIGN (0x4)
 *(.RAM_D2_buf*)
 .RAM_D2_buf    0x0000000030000000    0x3dc00 build/main.o
                0x0000000030000000                zx_buf

.isr_vector     0x0000000008000000      0x298
                0x0000000008000000                . = ALIGN (0x4)
 *(.isr_vector)
 .isr_vector    0x0000000008000000      0x298 build/startup_stm32h743xx.o
                0x0000000008000000                g_pfnVectors
                0x0000000008000298                . = ALIGN (0x4)

.text           0x00000000080002a0     0xb258
                0x00000000080002a0                . = ALIGN (0x4)
 *(.text)
 .text          0x00000000080002a0       0x10 c:/arm_tool/gcc/bin/../lib/gcc/arm-none-eabi/8.2.1/../../../../arm-none-eabi/lib/thumb/v7e-m+dp/hard\libc_nano.a(lib_a-strlen.o)
                0x00000000080002a0                strlen
 .text          0x00000000080002b0       0xa0 c:/arm_tool/gcc/bin/../lib/gcc/arm-none-eabi/8.2.1/../../../../arm-none-eabi/lib/thumb/v7e-m+dp/hard\libc_nano.a(lib_a-memchr.o)
                0x00000000080002b0                memchr
 .text          0x0000000008000350       0x30 c:/arm_tool/gcc/bin/../lib/gcc/arm-none-eabi/8.2.1/thumb/v7e-m+dp/hard\libgcc.a(_aeabi_uldivmod.o)
                0x0000000008000350                __aeabi_uldivmod
 .text          0x0000000008000380        0x4 c:/arm_tool/gcc/bin/../lib/gcc/arm-none-eabi/8.2.1/thumb/v7e-m+dp/hard\libgcc.a(_dvmd_tls.o)
                0x0000000008000380                __aeabi_idiv0
                0x0000000008000380                __aeabi_ldiv0
 *(.text*)
 .text.deregister_tm_clones
                0x0000000008000384       0x1c c:/arm_tool/gcc/bin/../lib/gcc/arm-none-eabi/8.2.1/thumb/v7e-m+dp/hard/crtbegin.o
 .text.register_tm_clones
                0x00000000080003a0       0x24 c:/arm_tool/gcc/bin/../lib/gcc/arm-none-eabi/8.2.1/thumb/v7e-m+dp/hard/crtbegin.o
 .text.__do_global_dtors_aux
                0x00000000080003c4       0x28 c:/arm_tool/gcc/bin/../lib/gcc/arm-none-eabi/8.2.1/thumb/v7e-m+dp/hard/crtbegin.o
 .text.frame_dummy
                0x00000000080003ec       0x24 c:/arm_tool/gcc/bin/../lib/gcc/arm-none-eabi/8.2.1/thumb/v7e-m+dp/hard/crtbegin.o
 .text.HAL_DCMI_VsyncEventCallback
                0x0000000008000410       0x30 build/main.o
                0x0000000008000410                HAL_DCMI_VsyncEventCallback
 .text.HAL_DCMI_LineEventCallback
                0x0000000008000440        0x4 build/main.o
                0x0000000008000440                HAL_DCMI_LineEventCallback
 .text.HAL_DCMI_FrameEventCallback
                0x0000000008000444        0x4 build/main.o
                0x0000000008000444                HAL_DCMI_FrameEventCallback
 .text.HAL_DCMI_ErrorCallback
                0x0000000008000448        0x4 build/main.o
                0x0000000008000448                HAL_DCMI_ErrorCallback
 .text.init_pix_table
                0x000000000800044c       0xe4 build/main.o
                0x000000000800044c                init_pix_table
 .text.console_key
                0x0000000008000530      0x120 build/main.o
                0x0000000008000530                console_key
 .text.HAL_UART_RxCpltCallback
                0x0000000008000650       0x1c build/main.o
                0x0000000008000650                HAL_UART_RxCpltCallback
 .text.HAL_UART_RxHalfCpltCallback
                0x000000000800066c       0x1c build/main.o
                0x000000000800066c                HAL_UART_RxHalfCpltCallback
 .text.SystemClock_Config
                0x0000000008000688       0xd0 build/main.o
                0x0000000008000688                SystemClock_Config
 .text.startup.main
                0x0000000008000758      0x1c8 build/main.o
                0x0000000008000758                main
 .text.Error_Handler
                0x0000000008000920        0x4 build/main.o
                0x0000000008000920                Error_Handler
 .text.MX_GPIO_Init
                0x0000000008000924      0x19c build/gpio.o
                0x0000000008000924                MX_GPIO_Init
 .text.MX_USART3_UART_Init
                0x0000000008000ac0       0x8c build/usart.o
                0x0000000008000ac0                MX_USART3_UART_Init
 .text.HAL_UART_MspInit
                0x0000000008000b4c      0x124 build/usart.o
                0x0000000008000b4c                HAL_UART_MspInit
 .text.NMI_Handler
                0x0000000008000c70        0x4 build/stm32h7xx_it.o
                0x0000000008000c70                NMI_Handler
 .text.HardFault_Handler
                0x0000000008000c74        0x4 build/stm32h7xx_it.o
                0x0000000008000c74                HardFault_Handler
 .text.MemManage_Handler
                0x0000000008000c78        0x4 build/stm32h7xx_it.o
                0x0000000008000c78                MemManage_Handler
 .text.BusFault_Handler
                0x0000000008000c7c        0x4 build/stm32h7xx_it.o
                0x0000000008000c7c                BusFault_Handler
 .text.UsageFault_Handler
                0x0000000008000c80        0x4 build/stm32h7xx_it.o
                0x0000000008000c80                UsageFault_Handler
 .text.SVC_Handler
                0x0000000008000c84        0x4 build/stm32h7xx_it.o
                0x0000000008000c84                SVC_Handler
 .text.DebugMon_Handler
                0x0000000008000c88        0x4 build/stm32h7xx_it.o
                0x0000000008000c88                DebugMon_Handler
 .text.PendSV_Handler
                0x0000000008000c8c        0x4 build/stm32h7xx_it.o
                0x0000000008000c8c                PendSV_Handler
 .text.SysTick_Handler
                0x0000000008000c90        0x4 build/stm32h7xx_it.o
                0x0000000008000c90                SysTick_Handler
 .text.DMA1_Stream0_IRQHandler
                0x0000000008000c94        0xc build/stm32h7xx_it.o
                0x0000000008000c94                DMA1_Stream0_IRQHandler
 .text.DMA1_Stream1_IRQHandler
                0x0000000008000ca0        0xc build/stm32h7xx_it.o
                0x0000000008000ca0                DMA1_Stream1_IRQHandler
 .text.DMA1_Stream2_IRQHandler
                0x0000000008000cac        0xc build/stm32h7xx_it.o
                0x0000000008000cac                DMA1_Stream2_IRQHandler
 .text.USART3_IRQHandler
                0x0000000008000cb8        0xc build/stm32h7xx_it.o
                0x0000000008000cb8                USART3_IRQHandler
 .text.OTG_HS_IRQHandler
                0x0000000008000cc4        0xc build/stm32h7xx_it.o
                0x0000000008000cc4                OTG_HS_IRQHandler
 .text.DCMI_IRQHandler
                0x0000000008000cd0        0xc build/stm32h7xx_it.o
                0x0000000008000cd0                DCMI_IRQHandler
 .text.OTG_FS_IRQHandler
                0x0000000008000cdc        0xc build/stm32h7xx_it.o
                0x0000000008000cdc                OTG_FS_IRQHandler
 .text.HAL_MspInit
                0x0000000008000ce8       0x24 build/stm32h7xx_hal_msp.o
                0x0000000008000ce8                HAL_MspInit
 .text.MX_USB_DEVICE_Init
                0x0000000008000d0c       0xd4 build/usb_device.o
                0x0000000008000d0c                MX_USB_DEVICE_Init
 .text.USBD_HS_DeviceDescriptor
                0x0000000008000de0        0xc build/usbd_desc.o
                0x0000000008000de0                USBD_HS_DeviceDescriptor
 .text.USBD_FS_DeviceDescriptor
                0x0000000008000dec        0xc build/usbd_desc.o
                0x0000000008000dec                USBD_FS_DeviceDescriptor
 .text.USBD_FS_LangIDStrDescriptor
                0x0000000008000df8        0xc build/usbd_desc.o
                0x0000000008000df8                USBD_FS_LangIDStrDescriptor
 .text.IntToUnicode
                0x0000000008000e04       0x30 build/usbd_desc.o
 .text.Get_SerialNum
                0x0000000008000e34       0x40 build/usbd_desc.o
 .text.USBD_FS_SerialStrDescriptor
                0x0000000008000e74       0x14 build/usbd_desc.o
                0x0000000008000e74                USBD_FS_SerialStrDescriptor
 .text.USBD_FS_ManufacturerStrDescriptor
                0x0000000008000e88       0x1c build/usbd_desc.o
                0x0000000008000e88                USBD_FS_ManufacturerStrDescriptor
 .text.USBD_HS_ProductStrDescriptor
                0x0000000008000ea4       0x1c build/usbd_desc.o
                0x0000000008000ea4                USBD_HS_ProductStrDescriptor
 .text.USBD_HS_InterfaceStrDescriptor
                0x0000000008000ec0       0x1c build/usbd_desc.o
                0x0000000008000ec0                USBD_HS_InterfaceStrDescriptor
 .text.USBD_FS_ProductStrDescriptor
                0x0000000008000edc       0x1c build/usbd_desc.o
                0x0000000008000edc                USBD_FS_ProductStrDescriptor
 .text.USBD_FS_ConfigStrDescriptor
                0x0000000008000ef8       0x1c build/usbd_desc.o
                0x0000000008000ef8                USBD_FS_ConfigStrDescriptor
 .text.USBD_FS_InterfaceStrDescriptor
                0x0000000008000f14       0x1c build/usbd_desc.o
                0x0000000008000f14                USBD_FS_InterfaceStrDescriptor
 .text.USBD_HS_LangIDStrDescriptor
                0x0000000008000f30        0xc build/usbd_desc.o
                0x0000000008000f30                USBD_HS_LangIDStrDescriptor
 .text.USBD_HS_SerialStrDescriptor
                0x0000000008000f3c       0x14 build/usbd_desc.o
                0x0000000008000f3c                USBD_HS_SerialStrDescriptor
 .text.USBD_HS_ManufacturerStrDescriptor
                0x0000000008000f50       0x1c build/usbd_desc.o
                0x0000000008000f50                USBD_HS_ManufacturerStrDescriptor
 .text.USBD_HS_ConfigStrDescriptor
                0x0000000008000f6c       0x1c build/usbd_desc.o
                0x0000000008000f6c                USBD_HS_ConfigStrDescriptor
 .text.CDC_DeInit_FS
                0x0000000008000f88        0x4 build/usbd_cdc_if.o
 .text.CDC_Control_FS
                0x0000000008000f8c        0x4 build/usbd_cdc_if.o
 .text.CDC_TransmitCplt_FS
                0x0000000008000f90        0x4 build/usbd_cdc_if.o
 .text.CDC_Receive_FS
                0x0000000008000f94       0x1c build/usbd_cdc_if.o
 .text.CDC_Init_FS
                0x0000000008000fb0       0x28 build/usbd_cdc_if.o
 .text.HAL_PCD_MspInit
                0x0000000008000fd8      0x1cc build/usbd_conf.o
                0x0000000008000fd8                HAL_PCD_MspInit
 .text.HAL_PCD_SetupStageCallback
                0x00000000080011a4        0xc build/usbd_conf.o
                0x00000000080011a4                HAL_PCD_SetupStageCallback
 .text.HAL_PCD_DataOutStageCallback
                0x00000000080011b0       0x14 build/usbd_conf.o
                0x00000000080011b0                HAL_PCD_DataOutStageCallback
 .text.HAL_PCD_DataInStageCallback
                0x00000000080011c4       0x14 build/usbd_conf.o
                0x00000000080011c4                HAL_PCD_DataInStageCallback
 .text.HAL_PCD_SOFCallback
                0x00000000080011d8        0x8 build/usbd_conf.o
                0x00000000080011d8                HAL_PCD_SOFCallback
 .text.HAL_PCD_ResetCallback
                0x00000000080011e0       0x2c build/usbd_conf.o
                0x00000000080011e0                HAL_PCD_ResetCallback
 .text.HAL_PCD_SuspendCallback
                0x000000000800120c       0x30 build/usbd_conf.o
                0x000000000800120c                HAL_PCD_SuspendCallback
 .text.HAL_PCD_ResumeCallback
                0x000000000800123c        0x8 build/usbd_conf.o
                0x000000000800123c                HAL_PCD_ResumeCallback
 .text.HAL_PCD_ISOOUTIncompleteCallback
                0x0000000008001244        0x8 build/usbd_conf.o
                0x0000000008001244                HAL_PCD_ISOOUTIncompleteCallback
 .text.HAL_PCD_ISOINIncompleteCallback
                0x000000000800124c        0x8 build/usbd_conf.o
                0x000000000800124c                HAL_PCD_ISOINIncompleteCallback
 .text.HAL_PCD_ConnectCallback
                0x0000000008001254        0x8 build/usbd_conf.o
                0x0000000008001254                HAL_PCD_ConnectCallback
 .text.HAL_PCD_DisconnectCallback
                0x000000000800125c        0x8 build/usbd_conf.o
                0x000000000800125c                HAL_PCD_DisconnectCallback
 .text.USBD_LL_Init
                0x0000000008001264       0xd0 build/usbd_conf.o
                0x0000000008001264                USBD_LL_Init
 .text.USBD_LL_Start
                0x0000000008001334       0x1c build/usbd_conf.o
                0x0000000008001334                USBD_LL_Start
 .text.USBD_LL_OpenEP
                0x0000000008001350       0x24 build/usbd_conf.o
                0x0000000008001350                USBD_LL_OpenEP
 .text.USBD_LL_CloseEP
                0x0000000008001374       0x1c build/usbd_conf.o
                0x0000000008001374                USBD_LL_CloseEP
 .text.USBD_LL_StallEP
                0x0000000008001390       0x1c build/usbd_conf.o
                0x0000000008001390                USBD_LL_StallEP
 .text.USBD_LL_ClearStallEP
                0x00000000080013ac       0x1c build/usbd_conf.o
                0x00000000080013ac                USBD_LL_ClearStallEP
 .text.USBD_LL_IsStallEP
                0x00000000080013c8       0x28 build/usbd_conf.o
                0x00000000080013c8                USBD_LL_IsStallEP
 .text.USBD_LL_SetUSBAddress
                0x00000000080013f0       0x1c build/usbd_conf.o
                0x00000000080013f0                USBD_LL_SetUSBAddress
 .text.USBD_LL_Transmit
                0x000000000800140c       0x1c build/usbd_conf.o
                0x000000000800140c                USBD_LL_Transmit
 .text.USBD_LL_PrepareReceive
                0x0000000008001428       0x1c build/usbd_conf.o
                0x0000000008001428                USBD_LL_PrepareReceive
 .text.USBD_LL_GetRxDataSize
                0x0000000008001444        0x8 build/usbd_conf.o
                0x0000000008001444                USBD_LL_GetRxDataSize
 .text.USBD_static_malloc
                0x000000000800144c        0x8 build/usbd_conf.o
                0x000000000800144c                USBD_static_malloc
 .text.USBD_static_free
                0x0000000008001454        0x4 build/usbd_conf.o
                0x0000000008001454                USBD_static_free
 .text.HAL_PCD_Init
                0x0000000008001458      0x128 build/stm32h7xx_hal_pcd.o
                0x0000000008001458                HAL_PCD_Init
 .text.HAL_PCD_Start
                0x0000000008001580       0x44 build/stm32h7xx_hal_pcd.o
                0x0000000008001580                HAL_PCD_Start
 .text.HAL_PCD_IRQHandler
                0x00000000080015c4      0x640 build/stm32h7xx_hal_pcd.o
                0x00000000080015c4                HAL_PCD_IRQHandler
 .text.HAL_PCD_SetAddress
                0x0000000008001c04       0x28 build/stm32h7xx_hal_pcd.o
                0x0000000008001c04                HAL_PCD_SetAddress
 .text.HAL_PCD_EP_Open
                0x0000000008001c2c       0x74 build/stm32h7xx_hal_pcd.o
                0x0000000008001c2c                HAL_PCD_EP_Open
 .text.HAL_PCD_EP_Close
                0x0000000008001ca0       0x68 build/stm32h7xx_hal_pcd.o
                0x0000000008001ca0                HAL_PCD_EP_Close
 .text.HAL_PCD_EP_Receive
                0x0000000008001d08       0x50 build/stm32h7xx_hal_pcd.o
                0x0000000008001d08                HAL_PCD_EP_Receive
 .text.HAL_PCD_EP_GetRxCount
                0x0000000008001d58       0x14 build/stm32h7xx_hal_pcd.o
                0x0000000008001d58                HAL_PCD_EP_GetRxCount
 .text.HAL_PCD_EP_Transmit
                0x0000000008001d6c       0x48 build/stm32h7xx_hal_pcd.o
                0x0000000008001d6c                HAL_PCD_EP_Transmit
 .text.HAL_PCD_EP_SetStall
                0x0000000008001db4       0x88 build/stm32h7xx_hal_pcd.o
                0x0000000008001db4                HAL_PCD_EP_SetStall
 .text.HAL_PCD_EP_ClrStall
                0x0000000008001e3c       0x78 build/stm32h7xx_hal_pcd.o
                0x0000000008001e3c                HAL_PCD_EP_ClrStall
 .text.HAL_PCDEx_SetTxFiFo
                0x0000000008001eb4       0x48 build/stm32h7xx_hal_pcd_ex.o
                0x0000000008001eb4                HAL_PCDEx_SetTxFiFo
 .text.HAL_PCDEx_SetRxFiFo
                0x0000000008001efc        0x8 build/stm32h7xx_hal_pcd_ex.o
                0x0000000008001efc                HAL_PCDEx_SetRxFiFo
 .text.HAL_PCDEx_ActivateLPM
                0x0000000008001f04       0x2c build/stm32h7xx_hal_pcd_ex.o
                0x0000000008001f04                HAL_PCDEx_ActivateLPM
 .text.HAL_PCDEx_LPM_Callback
                0x0000000008001f30        0x4 build/stm32h7xx_hal_pcd_ex.o
                0x0000000008001f30                HAL_PCDEx_LPM_Callback
 .text.USB_CoreReset
                0x0000000008001f34       0x50 build/stm32h7xx_ll_usb.o
 .text.USB_CoreInit
                0x0000000008001f84       0x9c build/stm32h7xx_ll_usb.o
                0x0000000008001f84                USB_CoreInit
 .text.USB_SetTurnaroundTime
                0x0000000008002020      0x100 build/stm32h7xx_ll_usb.o
                0x0000000008002020                USB_SetTurnaroundTime
 .text.USB_EnableGlobalInt
                0x0000000008002120       0x10 build/stm32h7xx_ll_usb.o
                0x0000000008002120                USB_EnableGlobalInt
 .text.USB_DisableGlobalInt
                0x0000000008002130       0x10 build/stm32h7xx_ll_usb.o
                0x0000000008002130                USB_DisableGlobalInt
 .text.USB_SetCurrentMode
                0x0000000008002140       0x6c build/stm32h7xx_ll_usb.o
                0x0000000008002140                USB_SetCurrentMode
 .text.USB_FlushTxFifo
                0x00000000080021ac       0x50 build/stm32h7xx_ll_usb.o
                0x00000000080021ac                USB_FlushTxFifo
 .text.USB_FlushRxFifo
                0x00000000080021fc       0x4c build/stm32h7xx_ll_usb.o
                0x00000000080021fc                USB_FlushRxFifo
 .text.USB_DevInit
                0x0000000008002248      0x184 build/stm32h7xx_ll_usb.o
                0x0000000008002248                USB_DevInit
 .text.USB_GetDevSpeed
                0x00000000080023cc       0x18 build/stm32h7xx_ll_usb.o
                0x00000000080023cc                USB_GetDevSpeed
 .text.USB_ActivateEndpoint
                0x00000000080023e4       0x84 build/stm32h7xx_ll_usb.o
                0x00000000080023e4                USB_ActivateEndpoint
 .text.USB_DeactivateEndpoint
                0x0000000008002468       0xc0 build/stm32h7xx_ll_usb.o
                0x0000000008002468                USB_DeactivateEndpoint
 .text.USB_EPStartXfer
                0x0000000008002528      0x248 build/stm32h7xx_ll_usb.o
                0x0000000008002528                USB_EPStartXfer
 .text.USB_EP0StartXfer
                0x0000000008002770      0x110 build/stm32h7xx_ll_usb.o
                0x0000000008002770                USB_EP0StartXfer
 .text.USB_WritePacket
                0x0000000008002880       0x2c build/stm32h7xx_ll_usb.o
                0x0000000008002880                USB_WritePacket
 .text.USB_ReadPacket
                0x00000000080028ac       0x4c build/stm32h7xx_ll_usb.o
                0x00000000080028ac                USB_ReadPacket
 .text.USB_EPSetStall
                0x00000000080028f8       0x70 build/stm32h7xx_ll_usb.o
                0x00000000080028f8                USB_EPSetStall
 .text.USB_EPClearStall
                0x0000000008002968       0x58 build/stm32h7xx_ll_usb.o
                0x0000000008002968                USB_EPClearStall
 .text.USB_SetDevAddress
                0x00000000080029c0       0x24 build/stm32h7xx_ll_usb.o
                0x00000000080029c0                USB_SetDevAddress
 .text.USB_DevConnect
                0x00000000080029e4       0x20 build/stm32h7xx_ll_usb.o
                0x00000000080029e4                USB_DevConnect
 .text.USB_DevDisconnect
                0x0000000008002a04       0x20 build/stm32h7xx_ll_usb.o
                0x0000000008002a04                USB_DevDisconnect
 .text.USB_ReadInterrupts
                0x0000000008002a24        0x8 build/stm32h7xx_ll_usb.o
                0x0000000008002a24                USB_ReadInterrupts
 .text.USB_ReadDevAllOutEpInterrupt
                0x0000000008002a2c       0x10 build/stm32h7xx_ll_usb.o
                0x0000000008002a2c                USB_ReadDevAllOutEpInterrupt
 .text.USB_ReadDevAllInEpInterrupt
                0x0000000008002a3c       0x10 build/stm32h7xx_ll_usb.o
                0x0000000008002a3c                USB_ReadDevAllInEpInterrupt
 .text.USB_ReadDevOutEPInterrupt
                0x0000000008002a4c       0x14 build/stm32h7xx_ll_usb.o
                0x0000000008002a4c                USB_ReadDevOutEPInterrupt
 .text.USB_ReadDevInEPInterrupt
                0x0000000008002a60       0x28 build/stm32h7xx_ll_usb.o
                0x0000000008002a60                USB_ReadDevInEPInterrupt
 .text.USB_GetMode
                0x0000000008002a88        0x8 build/stm32h7xx_ll_usb.o
                0x0000000008002a88                USB_GetMode
 .text.USB_ActivateSetup
                0x0000000008002a90       0x2c build/stm32h7xx_ll_usb.o
                0x0000000008002a90                USB_ActivateSetup
 .text.USB_EP0_OutStart
                0x0000000008002abc       0x50 build/stm32h7xx_ll_usb.o
                0x0000000008002abc                USB_EP0_OutStart
 .text.HAL_RCC_OscConfig
                0x0000000008002b0c      0x5d4 build/stm32h7xx_hal_rcc.o
                0x0000000008002b0c                HAL_RCC_OscConfig
 .text.HAL_RCC_MCOConfig
                0x00000000080030e0       0xa0 build/stm32h7xx_hal_rcc.o
                0x00000000080030e0                HAL_RCC_MCOConfig
 .text.HAL_RCC_GetSysClockFreq
                0x0000000008003180      0x118 build/stm32h7xx_hal_rcc.o
                0x0000000008003180                HAL_RCC_GetSysClockFreq
 .text.HAL_RCC_ClockConfig
                0x0000000008003298      0x24c build/stm32h7xx_hal_rcc.o
                0x0000000008003298                HAL_RCC_ClockConfig
 .text.HAL_RCC_GetHCLKFreq
                0x00000000080034e4       0x44 build/stm32h7xx_hal_rcc.o
                0x00000000080034e4                HAL_RCC_GetHCLKFreq
 .text.HAL_RCC_GetPCLK1Freq
                0x0000000008003528       0x24 build/stm32h7xx_hal_rcc.o
                0x0000000008003528                HAL_RCC_GetPCLK1Freq
 .text.HAL_RCC_GetPCLK2Freq
                0x000000000800354c       0x24 build/stm32h7xx_hal_rcc.o
                0x000000000800354c                HAL_RCC_GetPCLK2Freq
 .text.RCCEx_PLL2_Config
                0x0000000008003570       0xf8 build/stm32h7xx_hal_rcc_ex.o
 .text.RCCEx_PLL3_Config
                0x0000000008003668       0xf8 build/stm32h7xx_hal_rcc_ex.o
 .text.HAL_RCCEx_PeriphCLKConfig
                0x0000000008003760      0xaa0 build/stm32h7xx_hal_rcc_ex.o
                0x0000000008003760                HAL_RCCEx_PeriphCLKConfig
 .text.HAL_RCCEx_GetD3PCLK1Freq
                0x0000000008004200       0x24 build/stm32h7xx_hal_rcc_ex.o
                0x0000000008004200                HAL_RCCEx_GetD3PCLK1Freq
 .text.HAL_RCCEx_GetPLL2ClockFreq
                0x0000000008004224      0x130 build/stm32h7xx_hal_rcc_ex.o
                0x0000000008004224                HAL_RCCEx_GetPLL2ClockFreq
 .text.HAL_RCCEx_GetPLL3ClockFreq
                0x0000000008004354      0x130 build/stm32h7xx_hal_rcc_ex.o
                0x0000000008004354                HAL_RCCEx_GetPLL3ClockFreq
 .text.HAL_GPIO_Init
                0x0000000008004484      0x26c build/stm32h7xx_hal_gpio.o
                0x0000000008004484                HAL_GPIO_Init
 .text.HAL_GPIO_WritePin
                0x00000000080046f0        0x8 build/stm32h7xx_hal_gpio.o
                0x00000000080046f0                HAL_GPIO_WritePin
 .text.HAL_GPIO_TogglePin
                0x00000000080046f8       0x14 build/stm32h7xx_hal_gpio.o
                0x00000000080046f8                HAL_GPIO_TogglePin
 .text.DMA_SetConfig
                0x000000000800470c      0x1ac build/stm32h7xx_hal_dma.o
 .text.DMA_CalcBaseAndBitshift
                0x00000000080048b8       0xf4 build/stm32h7xx_hal_dma.o
 .text.DMA_CalcDMAMUXChannelBaseAndMask
                0x00000000080049ac       0xdc build/stm32h7xx_hal_dma.o
 .text.DMA_CalcDMAMUXRequestGenBaseAndMask
                0x0000000008004a88       0xa0 build/stm32h7xx_hal_dma.o
 .text.HAL_DMA_Init
                0x0000000008004b28      0x488 build/stm32h7xx_hal_dma.o
                0x0000000008004b28                HAL_DMA_Init
 .text.HAL_DMA_Start_IT
                0x0000000008004fb0      0x1cc build/stm32h7xx_hal_dma.o
                0x0000000008004fb0                HAL_DMA_Start_IT
 .text.HAL_DMA_Abort
                0x000000000800517c      0x308 build/stm32h7xx_hal_dma.o
                0x000000000800517c                HAL_DMA_Abort
 .text.HAL_DMA_Abort_IT
                0x0000000008005484      0x19c build/stm32h7xx_hal_dma.o
                0x0000000008005484                HAL_DMA_Abort_IT
 .text.HAL_DMA_IRQHandler
                0x0000000008005620      0x6b0 build/stm32h7xx_hal_dma.o
                0x0000000008005620                HAL_DMA_IRQHandler
 .text.DMA_MultiBufferSetConfig
                0x0000000008005cd0       0x1c build/stm32h7xx_hal_dma_ex.o
 .text.HAL_DMAEx_MultiBufferStart_IT
                0x0000000008005cec      0x3bc build/stm32h7xx_hal_dma_ex.o
                0x0000000008005cec                HAL_DMAEx_MultiBufferStart_IT
 .text.HAL_DMAEx_ChangeMemory
                0x00000000080060a8       0x18 build/stm32h7xx_hal_dma_ex.o
                0x00000000080060a8                HAL_DMAEx_ChangeMemory
 .text.HAL_PWREx_ConfigSupply
                0x00000000080060c0       0x4c build/stm32h7xx_hal_pwr_ex.o
                0x00000000080060c0                HAL_PWREx_ConfigSupply
 .text.HAL_PWREx_EnableUSBVoltageDetector
                0x000000000800610c       0x10 build/stm32h7xx_hal_pwr_ex.o
                0x000000000800610c                HAL_PWREx_EnableUSBVoltageDetector
 .text.HAL_NVIC_SetPriorityGrouping
                0x000000000800611c       0x28 build/stm32h7xx_hal_cortex.o
                0x000000000800611c                HAL_NVIC_SetPriorityGrouping
 .text.HAL_NVIC_SetPriority
                0x0000000008006144       0x6c build/stm32h7xx_hal_cortex.o
                0x0000000008006144                HAL_NVIC_SetPriority
 .text.HAL_NVIC_EnableIRQ
                0x00000000080061b0       0x1c build/stm32h7xx_hal_cortex.o
                0x00000000080061b0                HAL_NVIC_EnableIRQ
 .text.HAL_SYSTICK_Config
                0x00000000080061cc       0x30 build/stm32h7xx_hal_cortex.o
                0x00000000080061cc                HAL_SYSTICK_Config
 .text.HAL_InitTick
                0x00000000080061fc       0x4c build/stm32h7xx_hal.o
                0x00000000080061fc                HAL_InitTick
 .text.HAL_Init
                0x0000000008006248       0x60 build/stm32h7xx_hal.o
                0x0000000008006248                HAL_Init
 .text.HAL_IncTick
                0x00000000080062a8       0x18 build/stm32h7xx_hal.o
                0x00000000080062a8                HAL_IncTick
 .text.HAL_GetTick
                0x00000000080062c0        0xc build/stm32h7xx_hal.o
                0x00000000080062c0                HAL_GetTick
 .text.HAL_Delay
                0x00000000080062cc       0x24 build/stm32h7xx_hal.o
                0x00000000080062cc                HAL_Delay
 .text.HAL_GetREVID
                0x00000000080062f0        0xc build/stm32h7xx_hal.o
                0x00000000080062f0                HAL_GetREVID
 .text.UART_EndRxTransfer
                0x00000000080062fc       0x6c build/stm32h7xx_hal_uart.o
 .text.HAL_UART_Transmit_DMA
                0x0000000008006368       0xc8 build/stm32h7xx_hal_uart.o
                0x0000000008006368                HAL_UART_Transmit_DMA
 .text.HAL_UART_TxCpltCallback
                0x0000000008006430        0x4 build/stm32h7xx_hal_uart.o
                0x0000000008006430                HAL_UART_TxCpltCallback
 .text.UART_DMATransmitCplt
                0x0000000008006434       0x44 build/stm32h7xx_hal_uart.o
 .text.HAL_UART_TxHalfCpltCallback
                0x0000000008006478        0x4 build/stm32h7xx_hal_uart.o
                0x0000000008006478                HAL_UART_TxHalfCpltCallback
 .text.UART_DMATxHalfCplt
                0x000000000800647c        0xc build/stm32h7xx_hal_uart.o
 .text.HAL_UART_ErrorCallback
                0x0000000008006488        0x4 build/stm32h7xx_hal_uart.o
                0x0000000008006488                HAL_UART_ErrorCallback
 .text.UART_DMAError
                0x000000000800648c       0x7c build/stm32h7xx_hal_uart.o
 .text.UART_DMAAbortOnError
                0x0000000008006508       0x18 build/stm32h7xx_hal_uart.o
 .text.HAL_UARTEx_RxEventCallback
                0x0000000008006520        0x4 build/stm32h7xx_hal_uart.o
                0x0000000008006520                HAL_UARTEx_RxEventCallback
 .text.HAL_UART_IRQHandler
                0x0000000008006524      0x31c build/stm32h7xx_hal_uart.o
                0x0000000008006524                HAL_UART_IRQHandler
 .text.UART_DMARxHalfCplt
                0x0000000008006840       0x1c build/stm32h7xx_hal_uart.o
 .text.UART_DMAReceiveCplt
                0x000000000800685c       0x98 build/stm32h7xx_hal_uart.o
 .text.UART_SetConfig
                0x00000000080068f4      0x5b8 build/stm32h7xx_hal_uart.o
                0x00000000080068f4                UART_SetConfig
 .text.UART_AdvFeatureConfig
                0x0000000008006eac       0xb0 build/stm32h7xx_hal_uart.o
                0x0000000008006eac                UART_AdvFeatureConfig
 .text.UART_WaitOnFlagUntilTimeout
                0x0000000008006f5c       0xd0 build/stm32h7xx_hal_uart.o
                0x0000000008006f5c                UART_WaitOnFlagUntilTimeout
 .text.UART_CheckIdleState
                0x000000000800702c       0x74 build/stm32h7xx_hal_uart.o
                0x000000000800702c                UART_CheckIdleState
 .text.HAL_UART_Init
                0x00000000080070a0       0x68 build/stm32h7xx_hal_uart.o
                0x00000000080070a0                HAL_UART_Init
 .text.UART_Start_Receive_DMA
                0x0000000008007108       0xac build/stm32h7xx_hal_uart.o
                0x0000000008007108                UART_Start_Receive_DMA
 .text.HAL_UART_Receive_DMA
                0x00000000080071b4       0x5c build/stm32h7xx_hal_uart.o
                0x00000000080071b4                HAL_UART_Receive_DMA
 .text.UARTEx_SetNbDataToProcess.part.1
                0x0000000008007210       0x3c build/stm32h7xx_hal_uart_ex.o
 .text.HAL_UARTEx_WakeupCallback
                0x000000000800724c        0x4 build/stm32h7xx_hal_uart_ex.o
                0x000000000800724c                HAL_UARTEx_WakeupCallback
 .text.HAL_UARTEx_RxFifoFullCallback
                0x0000000008007250        0x4 build/stm32h7xx_hal_uart_ex.o
                0x0000000008007250                HAL_UARTEx_RxFifoFullCallback
 .text.HAL_UARTEx_TxFifoEmptyCallback
                0x0000000008007254        0x4 build/stm32h7xx_hal_uart_ex.o
                0x0000000008007254                HAL_UARTEx_TxFifoEmptyCallback
 .text.HAL_UARTEx_DisableFifoMode
                0x0000000008007258       0x3c build/stm32h7xx_hal_uart_ex.o
                0x0000000008007258                HAL_UARTEx_DisableFifoMode
 .text.HAL_UARTEx_SetTxFifoThreshold
                0x0000000008007294       0x58 build/stm32h7xx_hal_uart_ex.o
                0x0000000008007294                HAL_UARTEx_SetTxFifoThreshold
 .text.HAL_UARTEx_SetRxFifoThreshold
                0x00000000080072ec       0x58 build/stm32h7xx_hal_uart_ex.o
                0x00000000080072ec                HAL_UARTEx_SetRxFifoThreshold
 .text.SystemInit
                0x0000000008007344       0xcc build/system_stm32h7xx.o
                0x0000000008007344                SystemInit
 .text.USBD_Init
                0x0000000008007410       0x2c build/usbd_core.o
                0x0000000008007410                USBD_Init
 .text.USBD_RegisterClass
                0x000000000800743c       0x38 build/usbd_core.o
                0x000000000800743c                USBD_RegisterClass
 .text.USBD_Start
                0x0000000008007474        0x4 build/usbd_core.o
                0x0000000008007474                USBD_Start
 .text.USBD_SetClassConfig
                0x0000000008007478       0x10 build/usbd_core.o
                0x0000000008007478                USBD_SetClassConfig
 .text.USBD_ClrClassConfig
                0x0000000008007488       0x10 build/usbd_core.o
                0x0000000008007488                USBD_ClrClassConfig
 .text.USBD_LL_SetupStage
                0x0000000008007498       0x60 build/usbd_core.o
                0x0000000008007498                USBD_LL_SetupStage
 .text.USBD_LL_DataOutStage
                0x00000000080074f8       0x68 build/usbd_core.o
                0x00000000080074f8                USBD_LL_DataOutStage
 .text.USBD_LL_DataInStage
                0x0000000008007560       0xb4 build/usbd_core.o
                0x0000000008007560                USBD_LL_DataInStage
 .text.USBD_LL_Reset
                0x0000000008007614       0x58 build/usbd_core.o
                0x0000000008007614                USBD_LL_Reset
 .text.USBD_LL_SetSpeed
                0x000000000800766c        0x8 build/usbd_core.o
                0x000000000800766c                USBD_LL_SetSpeed
 .text.USBD_LL_Suspend
                0x0000000008007674       0x18 build/usbd_core.o
                0x0000000008007674                USBD_LL_Suspend
 .text.USBD_LL_Resume
                0x000000000800768c       0x18 build/usbd_core.o
                0x000000000800768c                USBD_LL_Resume
 .text.USBD_LL_SOF
                0x00000000080076a4       0x28 build/usbd_core.o
                0x00000000080076a4                USBD_LL_SOF
 .text.USBD_LL_IsoINIncomplete
                0x00000000080076cc       0x28 build/usbd_core.o
                0x00000000080076cc                USBD_LL_IsoINIncomplete
 .text.USBD_LL_IsoOUTIncomplete
                0x00000000080076f4       0x28 build/usbd_core.o
                0x00000000080076f4                USBD_LL_IsoOUTIncomplete
 .text.USBD_LL_DevConnected
                0x000000000800771c        0x4 build/usbd_core.o
                0x000000000800771c                USBD_LL_DevConnected
 .text.USBD_LL_DevDisconnected
                0x0000000008007720       0x1c build/usbd_core.o
                0x0000000008007720                USBD_LL_DevDisconnected
 .text.USBD_StdDevReq
                0x000000000800773c      0x350 build/usbd_ctlreq.o
                0x000000000800773c                USBD_StdDevReq
 .text.USBD_StdItfReq
                0x0000000008007a8c       0x70 build/usbd_ctlreq.o
                0x0000000008007a8c                USBD_StdItfReq
 .text.USBD_StdEPReq
                0x0000000008007afc      0x14c build/usbd_ctlreq.o
                0x0000000008007afc                USBD_StdEPReq
 .text.USBD_ParseSetupRequest
                0x0000000008007c48       0x28 build/usbd_ctlreq.o
                0x0000000008007c48                USBD_ParseSetupRequest
 .text.USBD_CtlError
                0x0000000008007c70       0x18 build/usbd_ctlreq.o
                0x0000000008007c70                USBD_CtlError
 .text.USBD_GetString
                0x0000000008007c88       0x4c build/usbd_ctlreq.o
                0x0000000008007c88                USBD_GetString
 .text.USBD_CtlSendData
                0x0000000008007cd4       0x1c build/usbd_ioreq.o
                0x0000000008007cd4                USBD_CtlSendData
 .text.USBD_CtlContinueSendData
                0x0000000008007cf0       0x10 build/usbd_ioreq.o
                0x0000000008007cf0                USBD_CtlContinueSendData
 .text.USBD_CtlPrepareRx
                0x0000000008007d00       0x20 build/usbd_ioreq.o
                0x0000000008007d00                USBD_CtlPrepareRx
 .text.USBD_CtlContinueRx
                0x0000000008007d20       0x10 build/usbd_ioreq.o
                0x0000000008007d20                USBD_CtlContinueRx
 .text.USBD_CtlSendStatus
                0x0000000008007d30       0x18 build/usbd_ioreq.o
                0x0000000008007d30                USBD_CtlSendStatus
 .text.USBD_CtlReceiveStatus
                0x0000000008007d48       0x18 build/usbd_ioreq.o
                0x0000000008007d48                USBD_CtlReceiveStatus
 .text.USBD_CDC_EP0_RxReady
                0x0000000008007d60       0x34 build/usbd_cdc.o
 .text.USBD_CDC_GetFSCfgDesc
                0x0000000008007d94        0xc build/usbd_cdc.o
 .text.USBD_CDC_GetHSCfgDesc
                0x0000000008007da0        0xc build/usbd_cdc.o
 .text.USBD_CDC_GetOtherSpeedCfgDesc
                0x0000000008007dac        0xc build/usbd_cdc.o
 .text.USBD_CDC_GetDeviceQualifierDescriptor
                0x0000000008007db8        0xc build/usbd_cdc.o
                0x0000000008007db8                USBD_CDC_GetDeviceQualifierDescriptor
 .text.USBD_CDC_DataOut
                0x0000000008007dc4       0x2c build/usbd_cdc.o
 .text.USBD_CDC_DataIn
                0x0000000008007df0       0x68 build/usbd_cdc.o
 .text.USBD_CDC_Setup
                0x0000000008007e58      0x10c build/usbd_cdc.o
 .text.USBD_CDC_DeInit
                0x0000000008007f64       0x44 build/usbd_cdc.o
 .text.USBD_CDC_Init
                0x0000000008007fa8       0xb4 build/usbd_cdc.o
 .text.USBD_CDC_RegisterInterface
                0x000000000800805c       0x10 build/usbd_cdc.o
                0x000000000800805c                USBD_CDC_RegisterInterface
 .text.USBD_CDC_SetTxBuffer
                0x000000000800806c       0x18 build/usbd_cdc.o
                0x000000000800806c                USBD_CDC_SetTxBuffer
 .text.USBD_CDC_SetRxBuffer
                0x0000000008008084       0x14 build/usbd_cdc.o
                0x0000000008008084                USBD_CDC_SetRxBuffer
 .text.USBD_CDC_ReceivePacket
                0x0000000008008098       0x30 build/usbd_cdc.o
                0x0000000008008098                USBD_CDC_ReceivePacket
 .text.MX_DMA_Init
                0x00000000080080c8       0x58 build/dma.o
                0x00000000080080c8                MX_DMA_Init
 .text.USBD_UVC_EP0_RxReady
                0x0000000008008120        0x4 build/usbd_uvc.o
                0x0000000008008120                USBD_UVC_EP0_RxReady
 .text.USBD_UVC_DataOut
                0x0000000008008124        0x4 build/usbd_uvc.o
                0x0000000008008124                USBD_UVC_DataOut
 .text.USBD_UVC_GetFSCfgDesc
                0x0000000008008128        0xc build/usbd_uvc.o
                0x0000000008008128                USBD_UVC_GetFSCfgDesc
 .text.USBD_UVC_Init
                0x0000000008008134       0x38 build/usbd_uvc.o
                0x0000000008008134                USBD_UVC_Init
 .text.USBD_UVC_DeInit
                0x000000000800816c       0x20 build/usbd_uvc.o
                0x000000000800816c                USBD_UVC_DeInit
 .text.USBD_UVC_DataIn
                0x000000000800818c      0x140 build/usbd_uvc.o
                0x000000000800818c                USBD_UVC_DataIn
 .text.USBD_UVC_SOF
                0x00000000080082cc       0x2c build/usbd_uvc.o
                0x00000000080082cc                USBD_UVC_SOF
 .text.USBD_UVC_GetHSCfgDesc
                0x00000000080082f8        0xc build/usbd_uvc.o
                0x00000000080082f8                USBD_UVC_GetHSCfgDesc
 .text.USBD_UVC_RegisterCamera
                0x0000000008008304        0xc build/usbd_uvc.o
                0x0000000008008304                USBD_UVC_RegisterCamera
 .text.UVC_Req_GetCurrent
                0x0000000008008310       0x28 build/usbd_uvc.o
                0x0000000008008310                UVC_Req_GetCurrent
 .text.UVC_Req_SetCurrent
                0x0000000008008338       0x28 build/usbd_uvc.o
                0x0000000008008338                UVC_Req_SetCurrent
 .text.USBD_UVC_Setup
                0x0000000008008360       0x90 build/usbd_uvc.o
                0x0000000008008360                USBD_UVC_Setup
 .text.Camera_On
                0x00000000080083f0        0x4 build/usbd_uvc_if.o
                0x00000000080083f0                Camera_On
 .text.Camera_FreeFrame
                0x00000000080083f4        0x4 build/usbd_uvc_if.o
                0x00000000080083f4                Camera_FreeFrame
 .text.Camera_GetFrame
                0x00000000080083f8       0x38 build/usbd_uvc_if.o
                0x00000000080083f8                Camera_GetFrame
 .text.Camera_Off
                0x0000000008008430        0x4 build/usbd_uvc_if.o
                0x0000000008008430                Camera_Off
 .text.MX_RNG_Init
                0x0000000008008434       0x28 build/rng.o
                0x0000000008008434                MX_RNG_Init
 .text.HAL_RNG_MspInit
                0x000000000800845c       0x58 build/rng.o
                0x000000000800845c                HAL_RNG_MspInit
 .text.HAL_RNG_Init
                0x00000000080084b4       0x7c build/stm32h7xx_hal_rng.o
                0x00000000080084b4                HAL_RNG_Init
 .text.MX_DCMI_Init
                0x0000000008008530       0x3c build/dcmi.o
                0x0000000008008530                MX_DCMI_Init
 .text.HAL_DCMI_MspInit
                0x000000000800856c      0x1ac build/dcmi.o
                0x000000000800856c                HAL_DCMI_MspInit
 .text.DCMI_DMAXferCplt
                0x0000000008008718       0x84 build/stm32h7xx_hal_dcmi.o
 .text.HAL_DCMI_Init
                0x000000000800879c       0xa0 build/stm32h7xx_hal_dcmi.o
                0x000000000800879c                HAL_DCMI_Init
 .text.HAL_DCMI_Start_DMA
                0x000000000800883c      0x10c build/stm32h7xx_hal_dcmi.o
                0x000000000800883c                HAL_DCMI_Start_DMA
 .text.DCMI_DMAError
                0x0000000008008948       0x20 build/stm32h7xx_hal_dcmi.o
 .text.HAL_DCMI_IRQHandler
                0x0000000008008968       0xa0 build/stm32h7xx_hal_dcmi.o
                0x0000000008008968                HAL_DCMI_IRQHandler
 .text.printf_flush
                0x0000000008008a08       0x2c build/retarget.o
                0x0000000008008a08                printf_flush
 .text._write   0x0000000008008a34       0x4c build/retarget.o
                0x0000000008008a34                _write
 .text.Reset_Handler
                0x0000000008008a80       0x50 build/startup_stm32h743xx.o
                0x0000000008008a80                Reset_Handler
 .text.Default_Handler
                0x0000000008008ad0        0x2 build/startup_stm32h743xx.o
                0x0000000008008ad0                RTC_Alarm_IRQHandler
                0x0000000008008ad0                EXTI2_IRQHandler
                0x0000000008008ad0                TIM8_CC_IRQHandler
                0x0000000008008ad0                HRTIM1_Master_IRQHandler
                0x0000000008008ad0                UART8_IRQHandler
                0x0000000008008ad0                SPI4_IRQHandler
                0x0000000008008ad0                TIM1_CC_IRQHandler
                0x0000000008008ad0                BDMA_Channel6_IRQHandler
                0x0000000008008ad0                DMA2_Stream5_IRQHandler
                0x0000000008008ad0                HRTIM1_FLT_IRQHandler
                0x0000000008008ad0                JPEG_IRQHandler
                0x0000000008008ad0                DMA1_Stream5_IRQHandler
                0x0000000008008ad0                BDMA_Channel1_IRQHandler
                0x0000000008008ad0                HRTIM1_TIMD_IRQHandler
                0x0000000008008ad0                TAMP_STAMP_IRQHandler
                0x0000000008008ad0                EXTI3_IRQHandler
                0x0000000008008ad0                LPTIM4_IRQHandler
                0x0000000008008ad0                TIM8_TRG_COM_TIM14_IRQHandler
                0x0000000008008ad0                LPTIM2_IRQHandler
                0x0000000008008ad0                DFSDM1_FLT1_IRQHandler
                0x0000000008008ad0                DMAMUX2_OVR_IRQHandler
                0x0000000008008ad0                TIM8_UP_TIM13_IRQHandler
                0x0000000008008ad0                I2C3_ER_IRQHandler
                0x0000000008008ad0                DFSDM1_FLT2_IRQHandler
                0x0000000008008ad0                MDMA_IRQHandler
                0x0000000008008ad0                LPTIM3_IRQHandler
                0x0000000008008ad0                HSEM1_IRQHandler
                0x0000000008008ad0                EXTI0_IRQHandler
                0x0000000008008ad0                I2C2_EV_IRQHandler
                0x0000000008008ad0                FPU_IRQHandler
                0x0000000008008ad0                OTG_HS_WKUP_IRQHandler
                0x0000000008008ad0                FDCAN1_IT1_IRQHandler
                0x0000000008008ad0                LTDC_ER_IRQHandler
                0x0000000008008ad0                DMA2_Stream2_IRQHandler
                0x0000000008008ad0                HRTIM1_TIME_IRQHandler
                0x0000000008008ad0                SPI1_IRQHandler
                0x0000000008008ad0                TIM6_DAC_IRQHandler
                0x0000000008008ad0                HRTIM1_TIMC_IRQHandler
                0x0000000008008ad0                DMA2_Stream3_IRQHandler
                0x0000000008008ad0                SAI2_IRQHandler
                0x0000000008008ad0                DFSDM1_FLT3_IRQHandler
                0x0000000008008ad0                USART6_IRQHandler
                0x0000000008008ad0                TIM17_IRQHandler
                0x0000000008008ad0                BDMA_Channel7_IRQHandler
                0x0000000008008ad0                LPTIM5_IRQHandler
                0x0000000008008ad0                UART5_IRQHandler
                0x0000000008008ad0                ADC3_IRQHandler
                0x0000000008008ad0                DMA2_Stream0_IRQHandler
                0x0000000008008ad0                TIM4_IRQHandler
                0x0000000008008ad0                BDMA_Channel2_IRQHandler
                0x0000000008008ad0                QUADSPI_IRQHandler
                0x0000000008008ad0                I2C1_EV_IRQHandler
                0x0000000008008ad0                DMA1_Stream6_IRQHandler
                0x0000000008008ad0                DMAMUX1_OVR_IRQHandler
                0x0000000008008ad0                TIM16_IRQHandler
                0x0000000008008ad0                UART4_IRQHandler
                0x0000000008008ad0                BDMA_Channel5_IRQHandler
                0x0000000008008ad0                TIM3_IRQHandler
                0x0000000008008ad0                RCC_IRQHandler
                0x0000000008008ad0                TIM8_BRK_TIM12_IRQHandler
                0x0000000008008ad0                TIM1_TRG_COM_IRQHandler
                0x0000000008008ad0                Default_Handler
                0x0000000008008ad0                ECC_IRQHandler
                0x0000000008008ad0                CEC_IRQHandler
                0x0000000008008ad0                EXTI15_10_IRQHandler
                0x0000000008008ad0                BDMA_Channel0_IRQHandler
                0x0000000008008ad0                ADC_IRQHandler
                0x0000000008008ad0                DMA1_Stream7_IRQHandler
                0x0000000008008ad0                HRTIM1_TIMA_IRQHandler
                0x0000000008008ad0                SPI5_IRQHandler
                0x0000000008008ad0                TIM7_IRQHandler
                0x0000000008008ad0                SDMMC1_IRQHandler
                0x0000000008008ad0                TIM5_IRQHandler
                0x0000000008008ad0                DMA2_Stream7_IRQHandler
                0x0000000008008ad0                TIM15_IRQHandler
                0x0000000008008ad0                PVD_AVD_IRQHandler
                0x0000000008008ad0                I2C3_EV_IRQHandler
                0x0000000008008ad0                EXTI9_5_IRQHandler
                0x0000000008008ad0                RTC_WKUP_IRQHandler
                0x0000000008008ad0                LTDC_IRQHandler
                0x0000000008008ad0                SAI3_IRQHandler
                0x0000000008008ad0                ETH_WKUP_IRQHandler
                0x0000000008008ad0                SPDIF_RX_IRQHandler
                0x0000000008008ad0                SPI2_IRQHandler
                0x0000000008008ad0                OTG_HS_EP1_IN_IRQHandler
                0x0000000008008ad0                CRS_IRQHandler
                0x0000000008008ad0                EXTI4_IRQHandler
                0x0000000008008ad0                RNG_IRQHandler
                0x0000000008008ad0                HRTIM1_TIMB_IRQHandler
                0x0000000008008ad0                FDCAN2_IT1_IRQHandler
                0x0000000008008ad0                ETH_IRQHandler
                0x0000000008008ad0                TIM1_UP_IRQHandler
                0x0000000008008ad0                BDMA_Channel4_IRQHandler
                0x0000000008008ad0                OTG_HS_EP1_OUT_IRQHandler
                0x0000000008008ad0                WWDG_IRQHandler
                0x0000000008008ad0                SPI6_IRQHandler
                0x0000000008008ad0                MDIOS_IRQHandler
                0x0000000008008ad0                I2C4_EV_IRQHandler
                0x0000000008008ad0                FDCAN2_IT0_IRQHandler
                0x0000000008008ad0                LPUART1_IRQHandler
                0x0000000008008ad0                FDCAN1_IT0_IRQHandler
                0x0000000008008ad0                TIM2_IRQHandler
                0x0000000008008ad0                OTG_FS_WKUP_IRQHandler
                0x0000000008008ad0                DMA2D_IRQHandler
                0x0000000008008ad0                TIM1_BRK_IRQHandler
                0x0000000008008ad0                EXTI1_IRQHandler
                0x0000000008008ad0                SDMMC2_IRQHandler
                0x0000000008008ad0                OTG_FS_EP1_OUT_IRQHandler
                0x0000000008008ad0                BDMA_Channel3_IRQHandler
                0x0000000008008ad0                UART7_IRQHandler
                0x0000000008008ad0                MDIOS_WKUP_IRQHandler
                0x0000000008008ad0                USART2_IRQHandler
                0x0000000008008ad0                DFSDM1_FLT0_IRQHandler
                0x0000000008008ad0                SAI4_IRQHandler
                0x0000000008008ad0                I2C2_ER_IRQHandler
                0x0000000008008ad0                DMA2_Stream1_IRQHandler
                0x0000000008008ad0                FLASH_IRQHandler
                0x0000000008008ad0                DMA2_Stream4_IRQHandler
                0x0000000008008ad0                USART1_IRQHandler
                0x0000000008008ad0                SPI3_IRQHandler
                0x0000000008008ad0                WAKEUP_PIN_IRQHandler
                0x0000000008008ad0                DMA1_Stream4_IRQHandler
                0x0000000008008ad0                OTG_FS_EP1_IN_IRQHandler
                0x0000000008008ad0                I2C1_ER_IRQHandler
                0x0000000008008ad0                FMC_IRQHandler
                0x0000000008008ad0                FDCAN_CAL_IRQHandler
                0x0000000008008ad0                SWPMI1_IRQHandler
                0x0000000008008ad0                COMP1_IRQHandler
                0x0000000008008ad0                LPTIM1_IRQHandler
                0x0000000008008ad0                I2C4_ER_IRQHandler
                0x0000000008008ad0                DMA2_Stream6_IRQHandler
                0x0000000008008ad0                SAI1_IRQHandler
                0x0000000008008ad0                DMA1_Stream3_IRQHandler
 *fill*         0x0000000008008ad2        0x2 
 .text.__libc_init_array
                0x0000000008008ad4       0x48 c:/arm_tool/gcc/bin/../lib/gcc/arm-none-eabi/8.2.1/../../../../arm-none-eabi/lib/thumb/v7e-m+dp/hard\libc_nano.a(lib_a-init.o)
                0x0000000008008ad4                __libc_init_array
 .text.memset   0x0000000008008b1c       0x10 c:/arm_tool/gcc/bin/../lib/gcc/arm-none-eabi/8.2.1/../../../../arm-none-eabi/lib/thumb/v7e-m+dp/hard\libc_nano.a(lib_a-memset.o)
                0x0000000008008b1c                memset
 .text.__cvt    0x0000000008008b2c       0xa4 c:/arm_tool/gcc/bin/../lib/gcc/arm-none-eabi/8.2.1/../../../../arm-none-eabi/lib/thumb/v7e-m+dp/hard\libc_nano.a(lib_a-nano-vfprintf_float.o)
                0x0000000008008b2c                __cvt
 .text.__exponent
                0x0000000008008bd0       0x64 c:/arm_tool/gcc/bin/../lib/gcc/arm-none-eabi/8.2.1/../../../../arm-none-eabi/lib/thumb/v7e-m+dp/hard\libc_nano.a(lib_a-nano-vfprintf_float.o)
                0x0000000008008bd0                __exponent
 *fill*         0x0000000008008c34        0x4 
 .text._printf_float
                0x0000000008008c38      0x43c c:/arm_tool/gcc/bin/../lib/gcc/arm-none-eabi/8.2.1/../../../../arm-none-eabi/lib/thumb/v7e-m+dp/hard\libc_nano.a(lib_a-nano-vfprintf_float.o)
                0x0000000008008c38                _printf_float
 .text._printf_common
                0x0000000008009074       0xea c:/arm_tool/gcc/bin/../lib/gcc/arm-none-eabi/8.2.1/../../../../arm-none-eabi/lib/thumb/v7e-m+dp/hard\libc_nano.a(lib_a-nano-vfprintf_i.o)
                0x0000000008009074                _printf_common
 *fill*         0x000000000800915e        0x2 
 .text._printf_i
                0x0000000008009160      0x228 c:/arm_tool/gcc/bin/../lib/gcc/arm-none-eabi/8.2.1/../../../../arm-none-eabi/lib/thumb/v7e-m+dp/hard\libc_nano.a(lib_a-nano-vfprintf_i.o)
                0x0000000008009160                _printf_i
 .text.printf   0x0000000008009388       0x30 c:/arm_tool/gcc/bin/../lib/gcc/arm-none-eabi/8.2.1/../../../../arm-none-eabi/lib/thumb/v7e-m+dp/hard\libc_nano.a(lib_a-printf.o)
                0x0000000008009388                iprintf
                0x0000000008009388                printf
 .text._puts_r  0x00000000080093b8       0xdc c:/arm_tool/gcc/bin/../lib/gcc/arm-none-eabi/8.2.1/../../../../arm-none-eabi/lib/thumb/v7e-m+dp/hard\libc_nano.a(lib_a-puts.o)
                0x00000000080093b8                _puts_r
 .text.puts     0x0000000008009494       0x10 c:/arm_tool/gcc/bin/../lib/gcc/arm-none-eabi/8.2.1/../../../../arm-none-eabi/lib/thumb/v7e-m+dp/hard\libc_nano.a(lib_a-puts.o)
                0x0000000008009494                puts
 .text.__swbuf_r
                0x00000000080094a4       0xa4 c:/arm_tool/gcc/bin/../lib/gcc/arm-none-eabi/8.2.1/../../../../arm-none-eabi/lib/thumb/v7e-m+dp/hard\libc_nano.a(lib_a-wbuf.o)
                0x00000000080094a4                __swbuf_r
 .text.__swsetup_r
                0x0000000008009548       0xdc c:/arm_tool/gcc/bin/../lib/gcc/arm-none-eabi/8.2.1/../../../../arm-none-eabi/lib/thumb/v7e-m+dp/hard\libc_nano.a(lib_a-wsetup.o)
                0x0000000008009548                __swsetup_r
 .text.quorem   0x0000000008009624      0x112 c:/arm_tool/gcc/bin/../lib/gcc/arm-none-eabi/8.2.1/../../../../arm-none-eabi/lib/thumb/v7e-m+dp/hard\libc_nano.a(lib_a-dtoa.o)
 *fill*         0x0000000008009736        0x2 
 .text._dtoa_r  0x0000000008009738      0xa70 c:/arm_tool/gcc/bin/../lib/gcc/arm-none-eabi/8.2.1/../../../../arm-none-eabi/lib/thumb/v7e-m+dp/hard\libc_nano.a(lib_a-dtoa.o)
                0x0000000008009738                _dtoa_r
 .text.__sflush_r
                0x000000000800a1a8      0x10c c:/arm_tool/gcc/bin/../lib/gcc/arm-none-eabi/8.2.1/../../../../arm-none-eabi/lib/thumb/v7e-m+dp/hard\libc_nano.a(lib_a-fflush.o)
                0x000000000800a1a8                __sflush_r
 .text._fflush_r
                0x000000000800a2b4       0x78 c:/arm_tool/gcc/bin/../lib/gcc/arm-none-eabi/8.2.1/../../../../arm-none-eabi/lib/thumb/v7e-m+dp/hard\libc_nano.a(lib_a-fflush.o)
                0x000000000800a2b4                _fflush_r
 .text.std      0x000000000800a32c       0x48 c:/arm_tool/gcc/bin/../lib/gcc/arm-none-eabi/8.2.1/../../../../arm-none-eabi/lib/thumb/v7e-m+dp/hard\libc_nano.a(lib_a-findfp.o)
 .text._cleanup_r
                0x000000000800a374        0xc c:/arm_tool/gcc/bin/../lib/gcc/arm-none-eabi/8.2.1/../../../../arm-none-eabi/lib/thumb/v7e-m+dp/hard\libc_nano.a(lib_a-findfp.o)
                0x000000000800a374                _cleanup_r
 .text.__sfmoreglue
                0x000000000800a380       0x2c c:/arm_tool/gcc/bin/../lib/gcc/arm-none-eabi/8.2.1/../../../../arm-none-eabi/lib/thumb/v7e-m+dp/hard\libc_nano.a(lib_a-findfp.o)
                0x000000000800a380                __sfmoreglue
 .text.__sfp_lock_acquire
                0x000000000800a3ac        0xc c:/arm_tool/gcc/bin/../lib/gcc/arm-none-eabi/8.2.1/../../../../arm-none-eabi/lib/thumb/v7e-m+dp/hard\libc_nano.a(lib_a-findfp.o)
                0x000000000800a3ac                __sfp_lock_acquire
 .text.__sfp_lock_release
                0x000000000800a3b8        0xc c:/arm_tool/gcc/bin/../lib/gcc/arm-none-eabi/8.2.1/../../../../arm-none-eabi/lib/thumb/v7e-m+dp/hard\libc_nano.a(lib_a-findfp.o)
                0x000000000800a3b8                __sfp_lock_release
 .text.__sinit_lock_acquire
                0x000000000800a3c4        0xc c:/arm_tool/gcc/bin/../lib/gcc/arm-none-eabi/8.2.1/../../../../arm-none-eabi/lib/thumb/v7e-m+dp/hard\libc_nano.a(lib_a-findfp.o)
                0x000000000800a3c4                __sinit_lock_acquire
 .text.__sinit_lock_release
                0x000000000800a3d0        0xc c:/arm_tool/gcc/bin/../lib/gcc/arm-none-eabi/8.2.1/../../../../arm-none-eabi/lib/thumb/v7e-m+dp/hard\libc_nano.a(lib_a-findfp.o)
                0x000000000800a3d0                __sinit_lock_release
 .text.__sinit  0x000000000800a3dc       0x70 c:/arm_tool/gcc/bin/../lib/gcc/arm-none-eabi/8.2.1/../../../../arm-none-eabi/lib/thumb/v7e-m+dp/hard\libc_nano.a(lib_a-findfp.o)
                0x000000000800a3dc                __sinit
 .text.__sfp    0x000000000800a44c       0x8c c:/arm_tool/gcc/bin/../lib/gcc/arm-none-eabi/8.2.1/../../../../arm-none-eabi/lib/thumb/v7e-m+dp/hard\libc_nano.a(lib_a-findfp.o)
                0x000000000800a44c                __sfp
 .text._fwalk_reent
                0x000000000800a4d8       0x3c c:/arm_tool/gcc/bin/../lib/gcc/arm-none-eabi/8.2.1/../../../../arm-none-eabi/lib/thumb/v7e-m+dp/hard\libc_nano.a(lib_a-fwalk.o)
                0x000000000800a4d8                _fwalk_reent
 .text._localeconv_r
                0x000000000800a514        0x8 c:/arm_tool/gcc/bin/../lib/gcc/arm-none-eabi/8.2.1/../../../../arm-none-eabi/lib/thumb/v7e-m+dp/hard\libc_nano.a(lib_a-localeconv.o)
                0x000000000800a514                _localeconv_r
 .text.__retarget_lock_init_recursive
                0x000000000800a51c        0x2 c:/arm_tool/gcc/bin/../lib/gcc/arm-none-eabi/8.2.1/../../../../arm-none-eabi/lib/thumb/v7e-m+dp/hard\libc_nano.a(lib_a-lock.o)
                0x000000000800a51c                __retarget_lock_init_recursive
 .text.__retarget_lock_acquire_recursive
                0x000000000800a51e        0x2 c:/arm_tool/gcc/bin/../lib/gcc/arm-none-eabi/8.2.1/../../../../arm-none-eabi/lib/thumb/v7e-m+dp/hard\libc_nano.a(lib_a-lock.o)
                0x000000000800a51e                __retarget_lock_acquire_recursive
 .text.__retarget_lock_release_recursive
                0x000000000800a520        0x2 c:/arm_tool/gcc/bin/../lib/gcc/arm-none-eabi/8.2.1/../../../../arm-none-eabi/lib/thumb/v7e-m+dp/hard\libc_nano.a(lib_a-lock.o)
                0x000000000800a520                __retarget_lock_release_recursive
 .text.__swhatbuf_r
                0x000000000800a522       0x48 c:/arm_tool/gcc/bin/../lib/gcc/arm-none-eabi/8.2.1/../../../../arm-none-eabi/lib/thumb/v7e-m+dp/hard\libc_nano.a(lib_a-makebuf.o)
                0x000000000800a522                __swhatbuf_r
 *fill*         0x000000000800a56a        0x2 
 .text.__smakebuf_r
                0x000000000800a56c       0x80 c:/arm_tool/gcc/bin/../lib/gcc/arm-none-eabi/8.2.1/../../../../arm-none-eabi/lib/thumb/v7e-m+dp/hard\libc_nano.a(lib_a-makebuf.o)
                0x000000000800a56c                __smakebuf_r
 .text.malloc   0x000000000800a5ec       0x10 c:/arm_tool/gcc/bin/../lib/gcc/arm-none-eabi/8.2.1/../../../../arm-none-eabi/lib/thumb/v7e-m+dp/hard\libc_nano.a(lib_a-malloc.o)
                0x000000000800a5ec                malloc
 .text.memcpy   0x000000000800a5fc       0x1c c:/arm_tool/gcc/bin/../lib/gcc/arm-none-eabi/8.2.1/../../../../arm-none-eabi/lib/thumb/v7e-m+dp/hard\libc_nano.a(lib_a-memcpy-stub.o)
                0x000000000800a5fc                memcpy
 .text._Balloc  0x000000000800a618       0x68 c:/arm_tool/gcc/bin/../lib/gcc/arm-none-eabi/8.2.1/../../../../arm-none-eabi/lib/thumb/v7e-m+dp/hard\libc_nano.a(lib_a-mprec.o)
                0x000000000800a618                _Balloc
 .text._Bfree   0x000000000800a680       0x2e c:/arm_tool/gcc/bin/../lib/gcc/arm-none-eabi/8.2.1/../../../../arm-none-eabi/lib/thumb/v7e-m+dp/hard\libc_nano.a(lib_a-mprec.o)
                0x000000000800a680                _Bfree
 .text.__multadd
                0x000000000800a6ae       0x76 c:/arm_tool/gcc/bin/../lib/gcc/arm-none-eabi/8.2.1/../../../../arm-none-eabi/lib/thumb/v7e-m+dp/hard\libc_nano.a(lib_a-mprec.o)
                0x000000000800a6ae                __multadd
 .text.__hi0bits
                0x000000000800a724       0x40 c:/arm_tool/gcc/bin/../lib/gcc/arm-none-eabi/8.2.1/../../../../arm-none-eabi/lib/thumb/v7e-m+dp/hard\libc_nano.a(lib_a-mprec.o)
                0x000000000800a724                __hi0bits
 .text.__lo0bits
                0x000000000800a764       0x60 c:/arm_tool/gcc/bin/../lib/gcc/arm-none-eabi/8.2.1/../../../../arm-none-eabi/lib/thumb/v7e-m+dp/hard\libc_nano.a(lib_a-mprec.o)
                0x000000000800a764                __lo0bits
 .text.__i2b    0x000000000800a7c4       0x12 c:/arm_tool/gcc/bin/../lib/gcc/arm-none-eabi/8.2.1/../../../../arm-none-eabi/lib/thumb/v7e-m+dp/hard\libc_nano.a(lib_a-mprec.o)
                0x000000000800a7c4                __i2b
 .text.__multiply
                0x000000000800a7d6      0x120 c:/arm_tool/gcc/bin/../lib/gcc/arm-none-eabi/8.2.1/../../../../arm-none-eabi/lib/thumb/v7e-m+dp/hard\libc_nano.a(lib_a-mprec.o)
                0x000000000800a7d6                __multiply
 *fill*         0x000000000800a8f6        0x2 
 .text.__pow5mult
                0x000000000800a8f8       0x9c c:/arm_tool/gcc/bin/../lib/gcc/arm-none-eabi/8.2.1/../../../../arm-none-eabi/lib/thumb/v7e-m+dp/hard\libc_nano.a(lib_a-mprec.o)
                0x000000000800a8f8                __pow5mult
 .text.__lshift
                0x000000000800a994       0xa6 c:/arm_tool/gcc/bin/../lib/gcc/arm-none-eabi/8.2.1/../../../../arm-none-eabi/lib/thumb/v7e-m+dp/hard\libc_nano.a(lib_a-mprec.o)
                0x000000000800a994                __lshift
 .text.__mcmp   0x000000000800aa3a       0x34 c:/arm_tool/gcc/bin/../lib/gcc/arm-none-eabi/8.2.1/../../../../arm-none-eabi/lib/thumb/v7e-m+dp/hard\libc_nano.a(lib_a-mprec.o)
                0x000000000800aa3a                __mcmp
 .text.__mdiff  0x000000000800aa6e       0xba c:/arm_tool/gcc/bin/../lib/gcc/arm-none-eabi/8.2.1/../../../../arm-none-eabi/lib/thumb/v7e-m+dp/hard\libc_nano.a(lib_a-mprec.o)
                0x000000000800aa6e                __mdiff
 .text.__d2b    0x000000000800ab28       0x9c c:/arm_tool/gcc/bin/../lib/gcc/arm-none-eabi/8.2.1/../../../../arm-none-eabi/lib/thumb/v7e-m+dp/hard\libc_nano.a(lib_a-mprec.o)
                0x000000000800ab28                __d2b
 .text._calloc_r
                0x000000000800abc4       0x1c c:/arm_tool/gcc/bin/../lib/gcc/arm-none-eabi/8.2.1/../../../../arm-none-eabi/lib/thumb/v7e-m+dp/hard\libc_nano.a(lib_a-nano-callocr.o)
                0x000000000800abc4                _calloc_r
 .text._free_r  0x000000000800abe0       0x9c c:/arm_tool/gcc/bin/../lib/gcc/arm-none-eabi/8.2.1/../../../../arm-none-eabi/lib/thumb/v7e-m+dp/hard\libc_nano.a(lib_a-nano-freer.o)
                0x000000000800abe0                _free_r
 .text._malloc_r
                0x000000000800ac7c       0xb4 c:/arm_tool/gcc/bin/../lib/gcc/arm-none-eabi/8.2.1/../../../../arm-none-eabi/lib/thumb/v7e-m+dp/hard\libc_nano.a(lib_a-nano-mallocr.o)
                0x000000000800ac7c                _malloc_r
 .text.__sfputc_r
                0x000000000800ad30       0x2e c:/arm_tool/gcc/bin/../lib/gcc/arm-none-eabi/8.2.1/../../../../arm-none-eabi/lib/thumb/v7e-m+dp/hard\libc_nano.a(lib_a-nano-vfprintf.o)
 .text.__sfputs_r
                0x000000000800ad5e       0x24 c:/arm_tool/gcc/bin/../lib/gcc/arm-none-eabi/8.2.1/../../../../arm-none-eabi/lib/thumb/v7e-m+dp/hard\libc_nano.a(lib_a-nano-vfprintf.o)
                0x000000000800ad5e                __sfputs_r
 *fill*         0x000000000800ad82        0x2 
 .text._vfprintf_r
                0x000000000800ad84      0x250 c:/arm_tool/gcc/bin/../lib/gcc/arm-none-eabi/8.2.1/../../../../arm-none-eabi/lib/thumb/v7e-m+dp/hard\libc_nano.a(lib_a-nano-vfprintf.o)
                0x000000000800ad84                _vfprintf_r
                0x000000000800ad84                _vfiprintf_r
 .text._sbrk_r  0x000000000800afd4       0x20 c:/arm_tool/gcc/bin/../lib/gcc/arm-none-eabi/8.2.1/../../../../arm-none-eabi/lib/thumb/v7e-m+dp/hard\libc_nano.a(lib_a-sbrkr.o)
                0x000000000800afd4                _sbrk_r
 .text.__sread  0x000000000800aff4       0x22 c:/arm_tool/gcc/bin/../lib/gcc/arm-none-eabi/8.2.1/../../../../arm-none-eabi/lib/thumb/v7e-m+dp/hard\libc_nano.a(lib_a-stdio.o)
                0x000000000800aff4                __sread
 .text.__swrite
                0x000000000800b016       0x38 c:/arm_tool/gcc/bin/../lib/gcc/arm-none-eabi/8.2.1/../../../../arm-none-eabi/lib/thumb/v7e-m+dp/hard\libc_nano.a(lib_a-stdio.o)
                0x000000000800b016                __swrite
 .text.__sseek  0x000000000800b04e       0x24 c:/arm_tool/gcc/bin/../lib/gcc/arm-none-eabi/8.2.1/../../../../arm-none-eabi/lib/thumb/v7e-m+dp/hard\libc_nano.a(lib_a-stdio.o)
                0x000000000800b04e                __sseek
 .text.__sclose
                0x000000000800b072        0x8 c:/arm_tool/gcc/bin/../lib/gcc/arm-none-eabi/8.2.1/../../../../arm-none-eabi/lib/thumb/v7e-m+dp/hard\libc_nano.a(lib_a-stdio.o)
                0x000000000800b072                __sclose
 *fill*         0x000000000800b07a        0x2 
 .text._write_r
                0x000000000800b07c       0x24 c:/arm_tool/gcc/bin/../lib/gcc/arm-none-eabi/8.2.1/../../../../arm-none-eabi/lib/thumb/v7e-m+dp/hard\libc_nano.a(lib_a-writer.o)
                0x000000000800b07c                _write_r
 .text._close_r
                0x000000000800b0a0       0x20 c:/arm_tool/gcc/bin/../lib/gcc/arm-none-eabi/8.2.1/../../../../arm-none-eabi/lib/thumb/v7e-m+dp/hard\libc_nano.a(lib_a-closer.o)
                0x000000000800b0a0                _close_r
 .text._fstat_r
                0x000000000800b0c0       0x24 c:/arm_tool/gcc/bin/../lib/gcc/arm-none-eabi/8.2.1/../../../../arm-none-eabi/lib/thumb/v7e-m+dp/hard\libc_nano.a(lib_a-fstatr.o)
                0x000000000800b0c0                _fstat_r
 .text._isatty_r
                0x000000000800b0e4       0x20 c:/arm_tool/gcc/bin/../lib/gcc/arm-none-eabi/8.2.1/../../../../arm-none-eabi/lib/thumb/v7e-m+dp/hard\libc_nano.a(lib_a-isattyr.o)
                0x000000000800b0e4                _isatty_r
 .text._lseek_r
                0x000000000800b104       0x24 c:/arm_tool/gcc/bin/../lib/gcc/arm-none-eabi/8.2.1/../../../../arm-none-eabi/lib/thumb/v7e-m+dp/hard\libc_nano.a(lib_a-lseekr.o)
                0x000000000800b104                _lseek_r
 .text.__ascii_mbtowc
                0x000000000800b128       0x24 c:/arm_tool/gcc/bin/../lib/gcc/arm-none-eabi/8.2.1/../../../../arm-none-eabi/lib/thumb/v7e-m+dp/hard\libc_nano.a(lib_a-mbtowc_r.o)
                0x000000000800b128                __ascii_mbtowc
 .text.__malloc_lock
                0x000000000800b14c        0xc c:/arm_tool/gcc/bin/../lib/gcc/arm-none-eabi/8.2.1/../../../../arm-none-eabi/lib/thumb/v7e-m+dp/hard\libc_nano.a(lib_a-mlock.o)
                0x000000000800b14c                __malloc_lock
 .text.__malloc_unlock
                0x000000000800b158        0xc c:/arm_tool/gcc/bin/../lib/gcc/arm-none-eabi/8.2.1/../../../../arm-none-eabi/lib/thumb/v7e-m+dp/hard\libc_nano.a(lib_a-mlock.o)
                0x000000000800b158                __malloc_unlock
 .text._read_r  0x000000000800b164       0x24 c:/arm_tool/gcc/bin/../lib/gcc/arm-none-eabi/8.2.1/../../../../arm-none-eabi/lib/thumb/v7e-m+dp/hard\libc_nano.a(lib_a-readr.o)
                0x000000000800b164                _read_r
 .text.__ascii_wctomb
                0x000000000800b188       0x1a c:/arm_tool/gcc/bin/../lib/gcc/arm-none-eabi/8.2.1/../../../../arm-none-eabi/lib/thumb/v7e-m+dp/hard\libc_nano.a(lib_a-wctomb_r.o)
                0x000000000800b188                __ascii_wctomb
 *fill*         0x000000000800b1a2        0x2 
 .text._close   0x000000000800b1a4       0x10 c:/arm_tool/gcc/bin/../lib/gcc/arm-none-eabi/8.2.1/../../../../arm-none-eabi/lib/thumb/v7e-m+dp/hard\libnosys.a(close.o)
                0x000000000800b1a4                _close
 .text._fstat   0x000000000800b1b4       0x10 c:/arm_tool/gcc/bin/../lib/gcc/arm-none-eabi/8.2.1/../../../../arm-none-eabi/lib/thumb/v7e-m+dp/hard\libnosys.a(fstat.o)
                0x000000000800b1b4                _fstat
 .text._isatty  0x000000000800b1c4       0x10 c:/arm_tool/gcc/bin/../lib/gcc/arm-none-eabi/8.2.1/../../../../arm-none-eabi/lib/thumb/v7e-m+dp/hard\libnosys.a(isatty.o)
                0x000000000800b1c4                _isatty
 .text._lseek   0x000000000800b1d4       0x10 c:/arm_tool/gcc/bin/../lib/gcc/arm-none-eabi/8.2.1/../../../../arm-none-eabi/lib/thumb/v7e-m+dp/hard\libnosys.a(lseek.o)
                0x000000000800b1d4                _lseek
 .text._read    0x000000000800b1e4       0x10 c:/arm_tool/gcc/bin/../lib/gcc/arm-none-eabi/8.2.1/../../../../arm-none-eabi/lib/thumb/v7e-m+dp/hard\libnosys.a(read.o)
                0x000000000800b1e4                _read
 .text._sbrk    0x000000000800b1f4       0x1c c:/arm_tool/gcc/bin/../lib/gcc/arm-none-eabi/8.2.1/../../../../arm-none-eabi/lib/thumb/v7e-m+dp/hard\libnosys.a(sbrk.o)
                0x000000000800b1f4                _sbrk
 .text.__udivmoddi4
                0x000000000800b210      0x2d0 c:/arm_tool/gcc/bin/../lib/gcc/arm-none-eabi/8.2.1/thumb/v7e-m+dp/hard\libgcc.a(_udivmoddi4.o)
                0x000000000800b210                __udivmoddi4
 *(.glue_7)
 .glue_7        0x000000000800b4e0        0x0 linker stubs
 *(.glue_7t)
 .glue_7t       0x000000000800b4e0        0x0 linker stubs
 *(.eh_frame)
 .eh_frame      0x000000000800b4e0        0x0 c:/arm_tool/gcc/bin/../lib/gcc/arm-none-eabi/8.2.1/thumb/v7e-m+dp/hard/crtbegin.o
 *(.init)
 .init          0x000000000800b4e0        0x4 c:/arm_tool/gcc/bin/../lib/gcc/arm-none-eabi/8.2.1/thumb/v7e-m+dp/hard/crti.o
                0x000000000800b4e0                _init
 .init          0x000000000800b4e4        0x8 c:/arm_tool/gcc/bin/../lib/gcc/arm-none-eabi/8.2.1/thumb/v7e-m+dp/hard/crtn.o
 *(.fini)
 .fini          0x000000000800b4ec        0x4 c:/arm_tool/gcc/bin/../lib/gcc/arm-none-eabi/8.2.1/thumb/v7e-m+dp/hard/crti.o
                0x000000000800b4ec                _fini
 .fini          0x000000000800b4f0        0x8 c:/arm_tool/gcc/bin/../lib/gcc/arm-none-eabi/8.2.1/thumb/v7e-m+dp/hard/crtn.o
                0x000000000800b4f8                . = ALIGN (0x4)
                0x000000000800b4f8                _etext = .

.vfp11_veneer   0x000000000800b4f8        0x0
 .vfp11_veneer  0x000000000800b4f8        0x0 linker stubs

.v4_bx          0x000000000800b4f8        0x0
 .v4_bx         0x000000000800b4f8        0x0 linker stubs

.iplt           0x000000000800b4f8        0x0
 .iplt          0x000000000800b4f8        0x0 c:/arm_tool/gcc/bin/../lib/gcc/arm-none-eabi/8.2.1/thumb/v7e-m+dp/hard/crtbegin.o

.rodata         0x000000000800b4f8      0x468
                0x000000000800b4f8                . = ALIGN (0x4)
 *(.rodata)
 *(.rodata*)
 .rodata.main.str1.4
                0x000000000800b4f8       0xdb build/main.o
 *fill*         0x000000000800b5d3        0x1 
 .rodata.USBD_FS_ConfigStrDescriptor.str1.4
                0x000000000800b5d4        0xb build/usbd_desc.o
 *fill*         0x000000000800b5df        0x1 
 .rodata.USBD_FS_InterfaceStrDescriptor.str1.4
                0x000000000800b5e0        0xe build/usbd_desc.o
 *fill*         0x000000000800b5ee        0x2 
 .rodata.USBD_FS_ManufacturerStrDescriptor.str1.4
                0x000000000800b5f0        0x4 build/usbd_desc.o
 .rodata.USBD_FS_ProductStrDescriptor.str1.4
                0x000000000800b5f4       0x16 build/usbd_desc.o
 *fill*         0x000000000800b60a        0x2 
 .rodata.USBD_HS_InterfaceStrDescriptor.str1.4
                0x000000000800b60c        0x4 build/usbd_desc.o
 .rodata.USBD_HS_ProductStrDescriptor.str1.4
                0x000000000800b610       0x10 build/usbd_desc.o
 .rodata.CSWTCH.8
                0x000000000800b620        0x4 build/usbd_conf.o
 .rodata.flagBitshiftOffset.10959
                0x000000000800b624        0x8 build/stm32h7xx_hal_dma.o
 .rodata.CSWTCH.12
                0x000000000800b62c        0x6 build/stm32h7xx_hal_uart.o
 *fill*         0x000000000800b632        0x2 
 .rodata.CSWTCH.4
                0x000000000800b634       0x29 build/stm32h7xx_hal_uart.o
 *fill*         0x000000000800b65d        0x3 
 .rodata.CSWTCH.5
                0x000000000800b660        0x6 build/stm32h7xx_hal_uart.o
 *fill*         0x000000000800b666        0x2 
 .rodata.UARTPrescTable
                0x000000000800b668       0x18 build/stm32h7xx_hal_uart.o
                0x000000000800b668                UARTPrescTable
 .rodata.denominator.10927
                0x000000000800b680        0x8 build/stm32h7xx_hal_uart_ex.o
 .rodata.numerator.10926
                0x000000000800b688        0x8 build/stm32h7xx_hal_uart_ex.o
 .rodata.D1CorePrescTable
                0x000000000800b690       0x10 build/system_stm32h7xx.o
                0x000000000800b690                D1CorePrescTable
 .rodata._global_impure_ptr
                0x000000000800b6a0        0x4 c:/arm_tool/gcc/bin/../lib/gcc/arm-none-eabi/8.2.1/../../../../arm-none-eabi/lib/thumb/v7e-m+dp/hard\libc_nano.a(lib_a-impure.o)
                0x000000000800b6a0                _global_impure_ptr
 .rodata._printf_float.str1.1
                0x000000000800b6a4       0x12 c:/arm_tool/gcc/bin/../lib/gcc/arm-none-eabi/8.2.1/../../../../arm-none-eabi/lib/thumb/v7e-m+dp/hard\libc_nano.a(lib_a-nano-vfprintf_float.o)
 .rodata._printf_i.str1.1
                0x000000000800b6b6       0x22 c:/arm_tool/gcc/bin/../lib/gcc/arm-none-eabi/8.2.1/../../../../arm-none-eabi/lib/thumb/v7e-m+dp/hard\libc_nano.a(lib_a-nano-vfprintf_i.o)
 .rodata._dtoa_r.str1.1
                0x000000000800b6d8        0xd c:/arm_tool/gcc/bin/../lib/gcc/arm-none-eabi/8.2.1/../../../../arm-none-eabi/lib/thumb/v7e-m+dp/hard\libc_nano.a(lib_a-dtoa.o)
                                          0xf (size before relaxing)
 *fill*         0x000000000800b6e5        0x3 
 .rodata.__sf_fake_stderr
                0x000000000800b6e8       0x20 c:/arm_tool/gcc/bin/../lib/gcc/arm-none-eabi/8.2.1/../../../../arm-none-eabi/lib/thumb/v7e-m+dp/hard\libc_nano.a(lib_a-findfp.o)
                0x000000000800b6e8                __sf_fake_stderr
 .rodata.__sf_fake_stdin
                0x000000000800b708       0x20 c:/arm_tool/gcc/bin/../lib/gcc/arm-none-eabi/8.2.1/../../../../arm-none-eabi/lib/thumb/v7e-m+dp/hard\libc_nano.a(lib_a-findfp.o)
                0x000000000800b708                __sf_fake_stdin
 .rodata.__sf_fake_stdout
                0x000000000800b728       0x20 c:/arm_tool/gcc/bin/../lib/gcc/arm-none-eabi/8.2.1/../../../../arm-none-eabi/lib/thumb/v7e-m+dp/hard\libc_nano.a(lib_a-findfp.o)
                0x000000000800b728                __sf_fake_stdout
 .rodata.__mprec_bigtens
                0x000000000800b748       0x28 c:/arm_tool/gcc/bin/../lib/gcc/arm-none-eabi/8.2.1/../../../../arm-none-eabi/lib/thumb/v7e-m+dp/hard\libc_nano.a(lib_a-mprec.o)
                0x000000000800b748                __mprec_bigtens
 .rodata.__mprec_tens
                0x000000000800b770       0xc8 c:/arm_tool/gcc/bin/../lib/gcc/arm-none-eabi/8.2.1/../../../../arm-none-eabi/lib/thumb/v7e-m+dp/hard\libc_nano.a(lib_a-mprec.o)
                0x000000000800b770                __mprec_tens
 .rodata.p05.7454
                0x000000000800b838        0xc c:/arm_tool/gcc/bin/../lib/gcc/arm-none-eabi/8.2.1/../../../../arm-none-eabi/lib/thumb/v7e-m+dp/hard\libc_nano.a(lib_a-mprec.o)
 .rodata._vfprintf_r.str1.1
                0x000000000800b844       0x11 c:/arm_tool/gcc/bin/../lib/gcc/arm-none-eabi/8.2.1/../../../../arm-none-eabi/lib/thumb/v7e-m+dp/hard\libc_nano.a(lib_a-nano-vfprintf.o)
 .rodata._setlocale_r.str1.1
                0x000000000800b855        0x8 c:/arm_tool/gcc/bin/../lib/gcc/arm-none-eabi/8.2.1/../../../../arm-none-eabi/lib/thumb/v7e-m+dp/hard\libc_nano.a(lib_a-locale.o)
                                          0x9 (size before relaxing)
 .rodata.str1.1
                0x000000000800b85d        0x2 c:/arm_tool/gcc/bin/../lib/gcc/arm-none-eabi/8.2.1/../../../../arm-none-eabi/lib/thumb/v7e-m+dp/hard\libc_nano.a(lib_a-locale.o)
 .rodata._ctype_
                0x000000000800b85f      0x101 c:/arm_tool/gcc/bin/../lib/gcc/arm-none-eabi/8.2.1/../../../../arm-none-eabi/lib/thumb/v7e-m+dp/hard\libc_nano.a(lib_a-ctype_.o)
                0x000000000800b85f                _ctype_
                0x000000000800b960                . = ALIGN (0x4)

.ARM.extab
 *(.ARM.extab* .gnu.linkonce.armextab.*)

.ARM            0x000000000800b960        0x8
                0x000000000800b960                __exidx_start = .
 *(.ARM.exidx*)
 .ARM.exidx.text.__udivmoddi4
                0x000000000800b960        0x8 c:/arm_tool/gcc/bin/../lib/gcc/arm-none-eabi/8.2.1/thumb/v7e-m+dp/hard\libgcc.a(_udivmoddi4.o)
                0x000000000800b968                __exidx_end = .

.rel.dyn        0x000000000800b968        0x0
 .rel.iplt      0x000000000800b968        0x0 c:/arm_tool/gcc/bin/../lib/gcc/arm-none-eabi/8.2.1/thumb/v7e-m+dp/hard/crtbegin.o

.preinit_array  0x000000000800b968        0x0
                0x000000000800b968                PROVIDE (__preinit_array_start = .)
 *(.preinit_array*)
                0x000000000800b968                PROVIDE (__preinit_array_end = .)

.init_array     0x000000000800b968        0x4
                0x000000000800b968                PROVIDE (__init_array_start = .)
 *(SORT_BY_NAME(.init_array.*))
 *(.init_array*)
 .init_array    0x000000000800b968        0x4 c:/arm_tool/gcc/bin/../lib/gcc/arm-none-eabi/8.2.1/thumb/v7e-m+dp/hard/crtbegin.o
                0x000000000800b96c                PROVIDE (__init_array_end = .)

.fini_array     0x000000000800b96c        0x4
                [!provide]                        PROVIDE (__fini_array_start = .)
 *(SORT_BY_NAME(.fini_array.*))
 *(.fini_array*)
 .fini_array    0x000000000800b96c        0x4 c:/arm_tool/gcc/bin/../lib/gcc/arm-none-eabi/8.2.1/thumb/v7e-m+dp/hard/crtbegin.o
                [!provide]                        PROVIDE (__fini_array_end = .)
                0x000000000800b970                _sidata = LOADADDR (.data)

.data           0x0000000020000000      0x4c8 load address 0x000000000800b970
                0x0000000020000000                . = ALIGN (0x4)
                0x0000000020000000                _sdata = .
 *(.data)
 *(.data*)
 .data.pal_b    0x0000000020000000        0x1 build/main.o
                0x0000000020000000                pal_b
 .data.pal_g    0x0000000020000001        0x1 build/main.o
                0x0000000020000001                pal_g
 .data.pal_ib   0x0000000020000002        0x1 build/main.o
                0x0000000020000002                pal_ib
 .data.pal_ig   0x0000000020000003        0x1 build/main.o
                0x0000000020000003                pal_ig
 .data.pal_ir   0x0000000020000004        0x1 build/main.o
                0x0000000020000004                pal_ir
 .data.pal_r    0x0000000020000005        0x1 build/main.o
                0x0000000020000005                pal_r
 *fill*         0x0000000020000006        0x2 
 .data.FS_Desc  0x0000000020000008       0x1c build/usbd_desc.o
                0x0000000020000008                FS_Desc
 .data.HS_Desc  0x0000000020000024       0x1c build/usbd_desc.o
                0x0000000020000024                HS_Desc
 .data.USBD_FS_DeviceDesc
                0x0000000020000040       0x12 build/usbd_desc.o
                0x0000000020000040                USBD_FS_DeviceDesc
 *fill*         0x0000000020000052        0x2 
 .data.USBD_HS_DeviceDesc
                0x0000000020000054       0x12 build/usbd_desc.o
                0x0000000020000054                USBD_HS_DeviceDesc
 *fill*         0x0000000020000066        0x2 
 .data.USBD_LangIDDesc
                0x0000000020000068        0x4 build/usbd_desc.o
                0x0000000020000068                USBD_LangIDDesc
 .data.USBD_StringSerial
                0x000000002000006c       0x1a build/usbd_desc.o
                0x000000002000006c                USBD_StringSerial
 *fill*         0x0000000020000086        0x2 
 .data.USBD_Interface_fops_FS
                0x0000000020000088       0x14 build/usbd_cdc_if.o
                0x0000000020000088                USBD_Interface_fops_FS
 .data.uwTickFreq
                0x000000002000009c        0x1 build/stm32h7xx_hal.o
                0x000000002000009c                uwTickFreq
 *fill*         0x000000002000009d        0x3 
 .data.uwTickPrio
                0x00000000200000a0        0x4 build/stm32h7xx_hal.o
                0x00000000200000a0                uwTickPrio
 .data.SystemCoreClock
                0x00000000200000a4        0x4 build/system_stm32h7xx.o
                0x00000000200000a4                SystemCoreClock
 .data.SystemD2Clock
                0x00000000200000a8        0x4 build/system_stm32h7xx.o
                0x00000000200000a8                SystemD2Clock
 .data.USBD_CDC
                0x00000000200000ac       0x38 build/usbd_cdc.o
                0x00000000200000ac                USBD_CDC
 .data.USBD_CDC_CfgFSDesc
                0x00000000200000e4       0x43 build/usbd_cdc.o
 *fill*         0x0000000020000127        0x1 
 .data.USBD_CDC_CfgHSDesc
                0x0000000020000128       0x43 build/usbd_cdc.o
 *fill*         0x000000002000016b        0x1 
 .data.USBD_CDC_DeviceQualifierDesc
                0x000000002000016c        0xa build/usbd_cdc.o
 *fill*         0x0000000020000176        0x2 
 .data.USBD_CDC_OtherSpeedCfgDesc
                0x0000000020000178       0x43 build/usbd_cdc.o
 *fill*         0x00000000200001bb        0x1 
 .data.USBD_UVC
                0x00000000200001bc       0x38 build/usbd_uvc.o
                0x00000000200001bc                USBD_UVC
 .data.USBD_UVC_CfgFSDesc
                0x00000000200001f4       0xa7 build/usbd_uvc.o
                0x00000000200001f4                USBD_UVC_CfgFSDesc
 *fill*         0x000000002000029b        0x1 
 .data.videoCommitControl
                0x000000002000029c       0x22 build/usbd_uvc.o
                0x000000002000029c                videoCommitControl
 *fill*         0x00000000200002be        0x2 
 .data.videoProbeControl
                0x00000000200002c0       0x22 build/usbd_uvc.o
                0x00000000200002c0                videoProbeControl
 *fill*         0x00000000200002e2        0x2 
 .data.USBD_UVC_Camera
                0x00000000200002e4       0x10 build/usbd_uvc_if.o
                0x00000000200002e4                USBD_UVC_Camera
 .data.uvc_wait_cnt
                0x00000000200002f4        0x4 build/usbd_uvc_if.o
                0x00000000200002f4                uvc_wait_cnt
 .data._impure_ptr
                0x00000000200002f8        0x4 c:/arm_tool/gcc/bin/../lib/gcc/arm-none-eabi/8.2.1/../../../../arm-none-eabi/lib/thumb/v7e-m+dp/hard\libc_nano.a(lib_a-impure.o)
                0x00000000200002f8                _impure_ptr
 .data.impure_data
                0x00000000200002fc       0x60 c:/arm_tool/gcc/bin/../lib/gcc/arm-none-eabi/8.2.1/../../../../arm-none-eabi/lib/thumb/v7e-m+dp/hard\libc_nano.a(lib_a-impure.o)
 .data.__global_locale
                0x000000002000035c      0x16c c:/arm_tool/gcc/bin/../lib/gcc/arm-none-eabi/8.2.1/../../../../arm-none-eabi/lib/thumb/v7e-m+dp/hard\libc_nano.a(lib_a-locale.o)
                0x000000002000035c                __global_locale
                0x00000000200004c8                . = ALIGN (0x4)
                0x00000000200004c8                _edata = .

.tm_clone_table
                0x00000000200004c8        0x0 load address 0x000000000800be38
 .tm_clone_table
                0x00000000200004c8        0x0 c:/arm_tool/gcc/bin/../lib/gcc/arm-none-eabi/8.2.1/thumb/v7e-m+dp/hard/crtbegin.o
 .tm_clone_table
                0x00000000200004c8        0x0 c:/arm_tool/gcc/bin/../lib/gcc/arm-none-eabi/8.2.1/thumb/v7e-m+dp/hard/crtend.o

.igot.plt       0x00000000200004c8        0x0 load address 0x000000000800be38
 .igot.plt      0x00000000200004c8        0x0 c:/arm_tool/gcc/bin/../lib/gcc/arm-none-eabi/8.2.1/thumb/v7e-m+dp/hard/crtbegin.o
                0x00000000200004c8                . = ALIGN (0x4)

.bss            0x00000000200004c8     0x3688 load address 0x000000000800be38
                0x00000000200004c8                _sbss = .
                0x00000000200004c8                __bss_start__ = _sbss
 *(.bss)
 *(.bss*)
 .bss.completed.8014
                0x00000000200004c8        0x1 c:/arm_tool/gcc/bin/../lib/gcc/arm-none-eabi/8.2.1/thumb/v7e-m+dp/hard/crtbegin.o
 *fill*         0x00000000200004c9        0x3 
 .bss.object.8019
                0x00000000200004cc       0x18 c:/arm_tool/gcc/bin/../lib/gcc/arm-none-eabi/8.2.1/thumb/v7e-m+dp/hard/crtbegin.o
 .bss.p         0x00000000200004e4        0x4 build/main.o
 .bss.settings_flag
                0x00000000200004e8        0x1 build/main.o
                0x00000000200004e8                settings_flag
 *fill*         0x00000000200004e9        0x3 
 .bss.mem.12742
                0x00000000200004ec      0x220 build/usbd_conf.o
 .bss.cfgidx.12666
                0x000000002000070c        0x1 build/usbd_ctlreq.o
 *fill*         0x000000002000070d        0x3 
 .bss.counter   0x0000000020000710        0x4 build/retarget.o
                0x0000000020000710                counter
 .bss.__malloc_free_list
                0x0000000020000714        0x4 c:/arm_tool/gcc/bin/../lib/gcc/arm-none-eabi/8.2.1/../../../../arm-none-eabi/lib/thumb/v7e-m+dp/hard\libc_nano.a(lib_a-nano-mallocr.o)
                0x0000000020000714                __malloc_free_list
 .bss.__malloc_sbrk_start
                0x0000000020000718        0x4 c:/arm_tool/gcc/bin/../lib/gcc/arm-none-eabi/8.2.1/../../../../arm-none-eabi/lib/thumb/v7e-m+dp/hard\libc_nano.a(lib_a-nano-mallocr.o)
                0x0000000020000718                __malloc_sbrk_start
 .bss.heap_end.5501
                0x000000002000071c        0x4 c:/arm_tool/gcc/bin/../lib/gcc/arm-none-eabi/8.2.1/../../../../arm-none-eabi/lib/thumb/v7e-m+dp/hard\libnosys.a(sbrk.o)
 *(COMMON)
 COMMON         0x0000000020000720        0xa build/main.o
                0x0000000020000720                pix_i
                0x0000000020000722                pix_g
                0x0000000020000724                uvc_wait_flag
                0x0000000020000726                pix_r
                0x0000000020000728                pix_b
 *fill*         0x000000002000072a        0x2 
 COMMON         0x000000002000072c      0x180 build/usart.o
                0x000000002000072c                hdma_usart3_rx
                0x00000000200007a4                huart3
                0x0000000020000834                hdma_usart3_tx
 COMMON         0x00000000200008ac      0x5a0 build/usb_device.o
                0x00000000200008ac                hUsbDeviceFS
                0x0000000020000b7c                hUsbDeviceHS
 COMMON         0x0000000020000e4c      0x200 build/usbd_desc.o
                0x0000000020000e4c                USBD_StrDesc
 COMMON         0x000000002000104c     0x2000 build/usbd_cdc_if.o
                0x000000002000104c                UserRxBufferHS
                0x000000002000184c                UserRxBufferFS
                0x000000002000204c                UserTxBufferFS
                0x000000002000284c                UserTxBufferHS
 COMMON         0x000000002000304c      0x810 build/usbd_conf.o
                0x000000002000304c                hpcd_USB_OTG_HS
                0x0000000020003454                hpcd_USB_OTG_FS
 COMMON         0x000000002000385c        0x4 build/stm32h7xx_hal.o
                0x000000002000385c                uwTick
 COMMON         0x0000000020003860      0x204 build/usbd_uvc.o
                0x0000000020003860                huvc
                0x0000000020003864                USBD_UVC_StrDesc
 COMMON         0x0000000020003a64       0x14 build/rng.o
                0x0000000020003a64                hrng
 COMMON         0x0000000020003a78       0xc8 build/dcmi.o
                0x0000000020003a78                hdma_dcmi
                0x0000000020003af0                hdcmi
 COMMON         0x0000000020003b40        0x9 c:/arm_tool/gcc/bin/../lib/gcc/arm-none-eabi/8.2.1/../../../../arm-none-eabi/lib/thumb/v7e-m+dp/hard\libc_nano.a(lib_a-lock.o)
                0x0000000020003b40                __lock___atexit_recursive_mutex
                0x0000000020003b41                __lock___arc4random_mutex
                0x0000000020003b42                __lock___env_recursive_mutex
                0x0000000020003b43                __lock___sinit_recursive_mutex
                0x0000000020003b44                __lock___malloc_recursive_mutex
                0x0000000020003b45                __lock___at_quick_exit_mutex
                0x0000000020003b46                __lock___dd_hash_mutex
                0x0000000020003b47                __lock___tz_mutex
                0x0000000020003b48                __lock___sfp_recursive_mutex
 *fill*         0x0000000020003b49        0x3 
 COMMON         0x0000000020003b4c        0x4 c:/arm_tool/gcc/bin/../lib/gcc/arm-none-eabi/8.2.1/../../../../arm-none-eabi/lib/thumb/v7e-m+dp/hard\libc_nano.a(lib_a-reent.o)
                0x0000000020003b4c                errno
                0x0000000020003b50                . = ALIGN (0x4)
                0x0000000020003b50                _ebss = .
                0x0000000020003b50                __bss_end__ = _ebss

._user_heap_stack
                0x0000000020003b50      0xc00 load address 0x000000000800be38
                0x0000000020003b50                . = ALIGN (0x8)
                0x0000000020003b50                PROVIDE (end = .)
                [!provide]                        PROVIDE (_end = .)
                0x0000000020003f50                . = (. + _Min_Heap_Size)
 *fill*         0x0000000020003b50      0x400 
                0x0000000020004750                . = (. + _Min_Stack_Size)
 *fill*         0x0000000020003f50      0x800 
                0x0000000020004750                . = ALIGN (0x8)

/DISCARD/
 libc.a(*)
 libm.a(*)
 libgcc.a(*)

.ARM.attributes
                0x0000000000000000       0x2e
 *(.ARM.attributes)
 .ARM.attributes
                0x0000000000000000       0x1e c:/arm_tool/gcc/bin/../lib/gcc/arm-none-eabi/8.2.1/thumb/v7e-m+dp/hard/crti.o
 .ARM.attributes
                0x000000000000001e       0x32 c:/arm_tool/gcc/bin/../lib/gcc/arm-none-eabi/8.2.1/thumb/v7e-m+dp/hard/crtbegin.o
 .ARM.attributes
                0x0000000000000050       0x32 build/main.o
 .ARM.attributes
                0x0000000000000082       0x32 build/gpio.o
 .ARM.attributes
                0x00000000000000b4       0x32 build/usart.o
 .ARM.attributes
                0x00000000000000e6       0x32 build/stm32h7xx_it.o
 .ARM.attributes
                0x0000000000000118       0x32 build/stm32h7xx_hal_msp.o
 .ARM.attributes
                0x000000000000014a       0x32 build/usb_device.o
 .ARM.attributes
                0x000000000000017c       0x32 build/usbd_desc.o
 .ARM.attributes
                0x00000000000001ae       0x32 build/usbd_cdc_if.o
 .ARM.attributes
                0x00000000000001e0       0x32 build/usbd_conf.o
 .ARM.attributes
                0x0000000000000212       0x32 build/stm32h7xx_hal_pcd.o
 .ARM.attributes
                0x0000000000000244       0x32 build/stm32h7xx_hal_pcd_ex.o
 .ARM.attributes
                0x0000000000000276       0x32 build/stm32h7xx_ll_usb.o
 .ARM.attributes
                0x00000000000002a8       0x32 build/stm32h7xx_hal_rcc.o
 .ARM.attributes
                0x00000000000002da       0x32 build/stm32h7xx_hal_rcc_ex.o
 .ARM.attributes
                0x000000000000030c       0x32 build/stm32h7xx_hal_gpio.o
 .ARM.attributes
                0x000000000000033e       0x32 build/stm32h7xx_hal_dma.o
 .ARM.attributes
                0x0000000000000370       0x32 build/stm32h7xx_hal_dma_ex.o
 .ARM.attributes
                0x00000000000003a2       0x32 build/stm32h7xx_hal_pwr_ex.o
 .ARM.attributes
                0x00000000000003d4       0x32 build/stm32h7xx_hal_cortex.o
 .ARM.attributes
                0x0000000000000406       0x32 build/stm32h7xx_hal.o
 .ARM.attributes
                0x0000000000000438       0x32 build/stm32h7xx_hal_uart.o
 .ARM.attributes
                0x000000000000046a       0x32 build/stm32h7xx_hal_uart_ex.o
 .ARM.attributes
                0x000000000000049c       0x32 build/system_stm32h7xx.o
 .ARM.attributes
                0x00000000000004ce       0x32 build/usbd_core.o
 .ARM.attributes
                0x0000000000000500       0x32 build/usbd_ctlreq.o
 .ARM.attributes
                0x0000000000000532       0x32 build/usbd_ioreq.o
 .ARM.attributes
                0x0000000000000564       0x32 build/usbd_cdc.o
 .ARM.attributes
                0x0000000000000596       0x32 build/dma.o
 .ARM.attributes
                0x00000000000005c8       0x32 build/usbd_uvc.o
 .ARM.attributes
                0x00000000000005fa       0x32 build/usbd_uvc_if.o
 .ARM.attributes
                0x000000000000062c       0x32 build/rng.o
 .ARM.attributes
                0x000000000000065e       0x32 build/stm32h7xx_hal_rng.o
 .ARM.attributes
                0x0000000000000690       0x32 build/dcmi.o
 .ARM.attributes
                0x00000000000006c2       0x32 build/stm32h7xx_hal_dcmi.o
 .ARM.attributes
                0x00000000000006f4       0x32 build/retarget.o
 .ARM.attributes
                0x0000000000000726       0x21 build/startup_stm32h743xx.o
 .ARM.attributes
                0x0000000000000747       0x30 c:/arm_tool/gcc/bin/../lib/gcc/arm-none-eabi/8.2.1/../../../../arm-none-eabi/lib/thumb/v7e-m+dp/hard\libc_nano.a(lib_a-impure.o)
 .ARM.attributes
                0x0000000000000777       0x32 c:/arm_tool/gcc/bin/../lib/gcc/arm-none-eabi/8.2.1/../../../../arm-none-eabi/lib/thumb/v7e-m+dp/hard\libc_nano.a(lib_a-init.o)
 .ARM.attributes
                0x00000000000007a9       0x32 c:/arm_tool/gcc/bin/../lib/gcc/arm-none-eabi/8.2.1/../../../../arm-none-eabi/lib/thumb/v7e-m+dp/hard\libc_nano.a(lib_a-memset.o)
 .ARM.attributes
                0x00000000000007db       0x32 c:/arm_tool/gcc/bin/../lib/gcc/arm-none-eabi/8.2.1/../../../../arm-none-eabi/lib/thumb/v7e-m+dp/hard\libc_nano.a(lib_a-nano-vfprintf_float.o)
 .ARM.attributes
                0x000000000000080d       0x32 c:/arm_tool/gcc/bin/../lib/gcc/arm-none-eabi/8.2.1/../../../../arm-none-eabi/lib/thumb/v7e-m+dp/hard\libc_nano.a(lib_a-nano-vfprintf_i.o)
 .ARM.attributes
                0x000000000000083f       0x32 c:/arm_tool/gcc/bin/../lib/gcc/arm-none-eabi/8.2.1/../../../../arm-none-eabi/lib/thumb/v7e-m+dp/hard\libc_nano.a(lib_a-printf.o)
 .ARM.attributes
                0x0000000000000871       0x32 c:/arm_tool/gcc/bin/../lib/gcc/arm-none-eabi/8.2.1/../../../../arm-none-eabi/lib/thumb/v7e-m+dp/hard\libc_nano.a(lib_a-puts.o)
 .ARM.attributes
                0x00000000000008a3       0x17 c:/arm_tool/gcc/bin/../lib/gcc/arm-none-eabi/8.2.1/../../../../arm-none-eabi/lib/thumb/v7e-m+dp/hard\libc_nano.a(lib_a-strlen.o)
 .ARM.attributes
                0x00000000000008ba       0x32 c:/arm_tool/gcc/bin/../lib/gcc/arm-none-eabi/8.2.1/../../../../arm-none-eabi/lib/thumb/v7e-m+dp/hard\libc_nano.a(lib_a-wbuf.o)
 .ARM.attributes
                0x00000000000008ec       0x32 c:/arm_tool/gcc/bin/../lib/gcc/arm-none-eabi/8.2.1/../../../../arm-none-eabi/lib/thumb/v7e-m+dp/hard\libc_nano.a(lib_a-wsetup.o)
 .ARM.attributes
                0x000000000000091e       0x32 c:/arm_tool/gcc/bin/../lib/gcc/arm-none-eabi/8.2.1/../../../../arm-none-eabi/lib/thumb/v7e-m+dp/hard\libc_nano.a(lib_a-dtoa.o)
 .ARM.attributes
                0x0000000000000950       0x32 c:/arm_tool/gcc/bin/../lib/gcc/arm-none-eabi/8.2.1/../../../../arm-none-eabi/lib/thumb/v7e-m+dp/hard\libc_nano.a(lib_a-fflush.o)
 .ARM.attributes
                0x0000000000000982       0x32 c:/arm_tool/gcc/bin/../lib/gcc/arm-none-eabi/8.2.1/../../../../arm-none-eabi/lib/thumb/v7e-m+dp/hard\libc_nano.a(lib_a-findfp.o)
 .ARM.attributes
                0x00000000000009b4       0x32 c:/arm_tool/gcc/bin/../lib/gcc/arm-none-eabi/8.2.1/../../../../arm-none-eabi/lib/thumb/v7e-m+dp/hard\libc_nano.a(lib_a-fwalk.o)
 .ARM.attributes
                0x00000000000009e6       0x32 c:/arm_tool/gcc/bin/../lib/gcc/arm-none-eabi/8.2.1/../../../../arm-none-eabi/lib/thumb/v7e-m+dp/hard\libc_nano.a(lib_a-localeconv.o)
 .ARM.attributes
                0x0000000000000a18       0x32 c:/arm_tool/gcc/bin/../lib/gcc/arm-none-eabi/8.2.1/../../../../arm-none-eabi/lib/thumb/v7e-m+dp/hard\libc_nano.a(lib_a-lock.o)
 .ARM.attributes
                0x0000000000000a4a       0x32 c:/arm_tool/gcc/bin/../lib/gcc/arm-none-eabi/8.2.1/../../../../arm-none-eabi/lib/thumb/v7e-m+dp/hard\libc_nano.a(lib_a-makebuf.o)
 .ARM.attributes
                0x0000000000000a7c       0x32 c:/arm_tool/gcc/bin/../lib/gcc/arm-none-eabi/8.2.1/../../../../arm-none-eabi/lib/thumb/v7e-m+dp/hard\libc_nano.a(lib_a-malloc.o)
 .ARM.attributes
                0x0000000000000aae       0x1c c:/arm_tool/gcc/bin/../lib/gcc/arm-none-eabi/8.2.1/../../../../arm-none-eabi/lib/thumb/v7e-m+dp/hard\libc_nano.a(lib_a-memchr.o)
 .ARM.attributes
                0x0000000000000aca       0x32 c:/arm_tool/gcc/bin/../lib/gcc/arm-none-eabi/8.2.1/../../../../arm-none-eabi/lib/thumb/v7e-m+dp/hard\libc_nano.a(lib_a-memcpy-stub.o)
 .ARM.attributes
                0x0000000000000afc       0x32 c:/arm_tool/gcc/bin/../lib/gcc/arm-none-eabi/8.2.1/../../../../arm-none-eabi/lib/thumb/v7e-m+dp/hard\libc_nano.a(lib_a-mprec.o)
 .ARM.attributes
                0x0000000000000b2e       0x32 c:/arm_tool/gcc/bin/../lib/gcc/arm-none-eabi/8.2.1/../../../../arm-none-eabi/lib/thumb/v7e-m+dp/hard\libc_nano.a(lib_a-nano-callocr.o)
 .ARM.attributes
                0x0000000000000b60       0x32 c:/arm_tool/gcc/bin/../lib/gcc/arm-none-eabi/8.2.1/../../../../arm-none-eabi/lib/thumb/v7e-m+dp/hard\libc_nano.a(lib_a-nano-freer.o)
 .ARM.attributes
                0x0000000000000b92       0x32 c:/arm_tool/gcc/bin/../lib/gcc/arm-none-eabi/8.2.1/../../../../arm-none-eabi/lib/thumb/v7e-m+dp/hard\libc_nano.a(lib_a-nano-mallocr.o)
 .ARM.attributes
                0x0000000000000bc4       0x32 c:/arm_tool/gcc/bin/../lib/gcc/arm-none-eabi/8.2.1/../../../../arm-none-eabi/lib/thumb/v7e-m+dp/hard\libc_nano.a(lib_a-nano-vfprintf.o)
 .ARM.attributes
                0x0000000000000bf6       0x32 c:/arm_tool/gcc/bin/../lib/gcc/arm-none-eabi/8.2.1/../../../../arm-none-eabi/lib/thumb/v7e-m+dp/hard\libc_nano.a(lib_a-sbrkr.o)
 .ARM.attributes
                0x0000000000000c28       0x32 c:/arm_tool/gcc/bin/../lib/gcc/arm-none-eabi/8.2.1/../../../../arm-none-eabi/lib/thumb/v7e-m+dp/hard\libc_nano.a(lib_a-stdio.o)
 .ARM.attributes
                0x0000000000000c5a       0x32 c:/arm_tool/gcc/bin/../lib/gcc/arm-none-eabi/8.2.1/../../../../arm-none-eabi/lib/thumb/v7e-m+dp/hard\libc_nano.a(lib_a-writer.o)
 .ARM.attributes
                0x0000000000000c8c       0x32 c:/arm_tool/gcc/bin/../lib/gcc/arm-none-eabi/8.2.1/../../../../arm-none-eabi/lib/thumb/v7e-m+dp/hard\libc_nano.a(lib_a-closer.o)
 .ARM.attributes
                0x0000000000000cbe       0x32 c:/arm_tool/gcc/bin/../lib/gcc/arm-none-eabi/8.2.1/../../../../arm-none-eabi/lib/thumb/v7e-m+dp/hard\libc_nano.a(lib_a-fstatr.o)
 .ARM.attributes
                0x0000000000000cf0       0x32 c:/arm_tool/gcc/bin/../lib/gcc/arm-none-eabi/8.2.1/../../../../arm-none-eabi/lib/thumb/v7e-m+dp/hard\libc_nano.a(lib_a-isattyr.o)
 .ARM.attributes
                0x0000000000000d22       0x32 c:/arm_tool/gcc/bin/../lib/gcc/arm-none-eabi/8.2.1/../../../../arm-none-eabi/lib/thumb/v7e-m+dp/hard\libc_nano.a(lib_a-locale.o)
 .ARM.attributes
                0x0000000000000d54       0x32 c:/arm_tool/gcc/bin/../lib/gcc/arm-none-eabi/8.2.1/../../../../arm-none-eabi/lib/thumb/v7e-m+dp/hard\libc_nano.a(lib_a-lseekr.o)
 .ARM.attributes
                0x0000000000000d86       0x32 c:/arm_tool/gcc/bin/../lib/gcc/arm-none-eabi/8.2.1/../../../../arm-none-eabi/lib/thumb/v7e-m+dp/hard\libc_nano.a(lib_a-mbtowc_r.o)
 .ARM.attributes
                0x0000000000000db8       0x32 c:/arm_tool/gcc/bin/../lib/gcc/arm-none-eabi/8.2.1/../../../../arm-none-eabi/lib/thumb/v7e-m+dp/hard\libc_nano.a(lib_a-mlock.o)
 .ARM.attributes
                0x0000000000000dea       0x32 c:/arm_tool/gcc/bin/../lib/gcc/arm-none-eabi/8.2.1/../../../../arm-none-eabi/lib/thumb/v7e-m+dp/hard\libc_nano.a(lib_a-readr.o)
 .ARM.attributes
                0x0000000000000e1c       0x32 c:/arm_tool/gcc/bin/../lib/gcc/arm-none-eabi/8.2.1/../../../../arm-none-eabi/lib/thumb/v7e-m+dp/hard\libc_nano.a(lib_a-reent.o)
 .ARM.attributes
                0x0000000000000e4e       0x32 c:/arm_tool/gcc/bin/../lib/gcc/arm-none-eabi/8.2.1/../../../../arm-none-eabi/lib/thumb/v7e-m+dp/hard\libc_nano.a(lib_a-wctomb_r.o)
 .ARM.attributes
                0x0000000000000e80       0x30 c:/arm_tool/gcc/bin/../lib/gcc/arm-none-eabi/8.2.1/../../../../arm-none-eabi/lib/thumb/v7e-m+dp/hard\libc_nano.a(lib_a-ctype_.o)
 .ARM.attributes
                0x0000000000000eb0       0x32 c:/arm_tool/gcc/bin/../lib/gcc/arm-none-eabi/8.2.1/../../../../arm-none-eabi/lib/thumb/v7e-m+dp/hard\libnosys.a(close.o)
 .ARM.attributes
                0x0000000000000ee2       0x32 c:/arm_tool/gcc/bin/../lib/gcc/arm-none-eabi/8.2.1/../../../../arm-none-eabi/lib/thumb/v7e-m+dp/hard\libnosys.a(fstat.o)
 .ARM.attributes
                0x0000000000000f14       0x32 c:/arm_tool/gcc/bin/../lib/gcc/arm-none-eabi/8.2.1/../../../../arm-none-eabi/lib/thumb/v7e-m+dp/hard\libnosys.a(isatty.o)
 .ARM.attributes
                0x0000000000000f46       0x32 c:/arm_tool/gcc/bin/../lib/gcc/arm-none-eabi/8.2.1/../../../../arm-none-eabi/lib/thumb/v7e-m+dp/hard\libnosys.a(lseek.o)
 .ARM.attributes
                0x0000000000000f78       0x32 c:/arm_tool/gcc/bin/../lib/gcc/arm-none-eabi/8.2.1/../../../../arm-none-eabi/lib/thumb/v7e-m+dp/hard\libnosys.a(read.o)
 .ARM.attributes
                0x0000000000000faa       0x32 c:/arm_tool/gcc/bin/../lib/gcc/arm-none-eabi/8.2.1/../../../../arm-none-eabi/lib/thumb/v7e-m+dp/hard\libnosys.a(sbrk.o)
 .ARM.attributes
                0x0000000000000fdc       0x1e c:/arm_tool/gcc/bin/../lib/gcc/arm-none-eabi/8.2.1/thumb/v7e-m+dp/hard\libgcc.a(_aeabi_uldivmod.o)
 .ARM.attributes
                0x0000000000000ffa       0x32 c:/arm_tool/gcc/bin/../lib/gcc/arm-none-eabi/8.2.1/thumb/v7e-m+dp/hard\libgcc.a(_udivmoddi4.o)
 .ARM.attributes
                0x000000000000102c       0x1e c:/arm_tool/gcc/bin/../lib/gcc/arm-none-eabi/8.2.1/thumb/v7e-m+dp/hard\libgcc.a(_dvmd_tls.o)
 .ARM.attributes
                0x000000000000104a       0x30 c:/arm_tool/gcc/bin/../lib/gcc/arm-none-eabi/8.2.1/thumb/v7e-m+dp/hard/crtend.o
 .ARM.attributes
                0x000000000000107a       0x1e c:/arm_tool/gcc/bin/../lib/gcc/arm-none-eabi/8.2.1/thumb/v7e-m+dp/hard/crtn.o
OUTPUT(build/nuc-h7-uvc.elf elf32-littlearm)

.debug_info     0x0000000000000000    0x45c4a
 .debug_info    0x0000000000000000     0x26e2 build/main.o
 .debug_info    0x00000000000026e2     0x14bc build/gpio.o
 .debug_info    0x0000000000003b9e     0x249e build/usart.o
 .debug_info    0x000000000000603c     0x1e97 build/stm32h7xx_it.o
 .debug_info    0x0000000000007ed3     0x1169 build/stm32h7xx_hal_msp.o
 .debug_info    0x000000000000903c     0x15c5 build/usb_device.o
 .debug_info    0x000000000000a601     0x15d1 build/usbd_desc.o
 .debug_info    0x000000000000bbd2     0x18e1 build/usbd_cdc_if.o
 .debug_info    0x000000000000d4b3     0x3bbc build/usbd_conf.o
 .debug_info    0x000000000001106f     0x280d build/stm32h7xx_hal_pcd.o
 .debug_info    0x000000000001387c     0x169d build/stm32h7xx_hal_pcd_ex.o
 .debug_info    0x0000000000014f19     0x30d5 build/stm32h7xx_ll_usb.o
 .debug_info    0x0000000000017fee     0x1f8f build/stm32h7xx_hal_rcc.o
 .debug_info    0x0000000000019f7d     0x272f build/stm32h7xx_hal_rcc_ex.o
 .debug_info    0x000000000001c6ac     0x1aaf build/stm32h7xx_hal_gpio.o
 .debug_info    0x000000000001e15b     0x1baa build/stm32h7xx_hal_dma.o
 .debug_info    0x000000000001fd05     0x15ba build/stm32h7xx_hal_dma_ex.o
 .debug_info    0x00000000000212bf     0x1fb6 build/stm32h7xx_hal_pwr_ex.o
 .debug_info    0x0000000000023275     0x20ac build/stm32h7xx_hal_cortex.o
 .debug_info    0x0000000000025321     0x2463 build/stm32h7xx_hal.o
 .debug_info    0x0000000000027784     0x7b10 build/stm32h7xx_hal_uart.o
 .debug_info    0x000000000002f294     0x1fe6 build/stm32h7xx_hal_uart_ex.o
 .debug_info    0x000000000003127a     0x1a3e build/system_stm32h7xx.o
 .debug_info    0x0000000000032cb8     0x1b3b build/usbd_core.o
 .debug_info    0x00000000000347f3     0x207e build/usbd_ctlreq.o
 .debug_info    0x0000000000036871     0x1525 build/usbd_ioreq.o
 .debug_info    0x0000000000037d96     0x2177 build/usbd_cdc.o
 .debug_info    0x0000000000039f0d     0x15a3 build/dma.o
 .debug_info    0x000000000003b4b0     0x1b8c build/usbd_uvc.o
 .debug_info    0x000000000003d03c     0x142b build/usbd_uvc_if.o
 .debug_info    0x000000000003e467     0x1716 build/rng.o
 .debug_info    0x000000000003fb7d     0x114e build/stm32h7xx_hal_rng.o
 .debug_info    0x0000000000040ccb     0x2035 build/dcmi.o
 .debug_info    0x0000000000042d00     0x1a00 build/stm32h7xx_hal_dcmi.o
 .debug_info    0x0000000000044700     0x1528 build/retarget.o
 .debug_info    0x0000000000045c28       0x22 build/startup_stm32h743xx.o

.debug_abbrev   0x0000000000000000     0x7ec5
 .debug_abbrev  0x0000000000000000      0x4c5 build/main.o
 .debug_abbrev  0x00000000000004c5      0x29f build/gpio.o
 .debug_abbrev  0x0000000000000764      0x2e5 build/usart.o
 .debug_abbrev  0x0000000000000a49      0x2c9 build/stm32h7xx_it.o
 .debug_abbrev  0x0000000000000d12      0x244 build/stm32h7xx_hal_msp.o
 .debug_abbrev  0x0000000000000f56      0x28e build/usb_device.o
 .debug_abbrev  0x00000000000011e4      0x3ac build/usbd_desc.o
 .debug_abbrev  0x0000000000001590      0x3eb build/usbd_cdc_if.o
 .debug_abbrev  0x000000000000197b      0x445 build/usbd_conf.o
 .debug_abbrev  0x0000000000001dc0      0x466 build/stm32h7xx_hal_pcd.o
 .debug_abbrev  0x0000000000002226      0x3cf build/stm32h7xx_hal_pcd_ex.o
 .debug_abbrev  0x00000000000025f5      0x504 build/stm32h7xx_ll_usb.o
 .debug_abbrev  0x0000000000002af9      0x39a build/stm32h7xx_hal_rcc.o
 .debug_abbrev  0x0000000000002e93      0x415 build/stm32h7xx_hal_rcc_ex.o
 .debug_abbrev  0x00000000000032a8      0x362 build/stm32h7xx_hal_gpio.o
 .debug_abbrev  0x000000000000360a      0x3ec build/stm32h7xx_hal_dma.o
 .debug_abbrev  0x00000000000039f6      0x325 build/stm32h7xx_hal_dma_ex.o
 .debug_abbrev  0x0000000000003d1b      0x412 build/stm32h7xx_hal_pwr_ex.o
 .debug_abbrev  0x000000000000412d      0x498 build/stm32h7xx_hal_cortex.o
 .debug_abbrev  0x00000000000045c5      0x3cf build/stm32h7xx_hal.o
 .debug_abbrev  0x0000000000004994      0x595 build/stm32h7xx_hal_uart.o
 .debug_abbrev  0x0000000000004f29      0x456 build/stm32h7xx_hal_uart_ex.o
 .debug_abbrev  0x000000000000537f      0x263 build/system_stm32h7xx.o
 .debug_abbrev  0x00000000000055e2      0x426 build/usbd_core.o
 .debug_abbrev  0x0000000000005a08      0x4e3 build/usbd_ctlreq.o
 .debug_abbrev  0x0000000000005eeb      0x2a0 build/usbd_ioreq.o
 .debug_abbrev  0x000000000000618b      0x3c6 build/usbd_cdc.o
 .debug_abbrev  0x0000000000006551      0x283 build/dma.o
 .debug_abbrev  0x00000000000067d4      0x445 build/usbd_uvc.o
 .debug_abbrev  0x0000000000006c19      0x2e9 build/usbd_uvc_if.o
 .debug_abbrev  0x0000000000006f02      0x306 build/rng.o
 .debug_abbrev  0x0000000000007208      0x378 build/stm32h7xx_hal_rng.o
 .debug_abbrev  0x0000000000007580      0x2de build/dcmi.o
 .debug_abbrev  0x000000000000785e      0x384 build/stm32h7xx_hal_dcmi.o
 .debug_abbrev  0x0000000000007be2      0x2d1 build/retarget.o
 .debug_abbrev  0x0000000000007eb3       0x12 build/startup_stm32h743xx.o

.debug_loc      0x0000000000000000    0x183e3
 .debug_loc     0x0000000000000000      0x293 build/main.o
 .debug_loc     0x0000000000000293       0x39 build/gpio.o
 .debug_loc     0x00000000000002cc      0x10b build/usart.o
 .debug_loc     0x00000000000003d7       0x2c build/stm32h7xx_hal_msp.o
 .debug_loc     0x0000000000000403       0x50 build/usb_device.o
 .debug_loc     0x0000000000000453      0x672 build/usbd_desc.o
 .debug_loc     0x0000000000000ac5      0x300 build/usbd_cdc_if.o
 .debug_loc     0x0000000000000dc5     0x1417 build/usbd_conf.o
 .debug_loc     0x00000000000021dc     0x14dd build/stm32h7xx_hal_pcd.o
 .debug_loc     0x00000000000036b9      0x3a3 build/stm32h7xx_hal_pcd_ex.o
 .debug_loc     0x0000000000003a5c     0x312f build/stm32h7xx_ll_usb.o
 .debug_loc     0x0000000000006b8b      0xa59 build/stm32h7xx_hal_rcc.o
 .debug_loc     0x00000000000075e4     0x13a3 build/stm32h7xx_hal_rcc_ex.o
 .debug_loc     0x0000000000008987      0x502 build/stm32h7xx_hal_gpio.o
 .debug_loc     0x0000000000008e89     0x10e9 build/stm32h7xx_hal_dma.o
 .debug_loc     0x0000000000009f72      0x95e build/stm32h7xx_hal_dma_ex.o
 .debug_loc     0x000000000000a8d0      0x701 build/stm32h7xx_hal_pwr_ex.o
 .debug_loc     0x000000000000afd1      0x873 build/stm32h7xx_hal_cortex.o
 .debug_loc     0x000000000000b844      0x699 build/stm32h7xx_hal.o
 .debug_loc     0x000000000000bedd     0x68ac build/stm32h7xx_hal_uart.o
 .debug_loc     0x0000000000012789      0xf14 build/stm32h7xx_hal_uart_ex.o
 .debug_loc     0x000000000001369d      0x1e9 build/system_stm32h7xx.o
 .debug_loc     0x0000000000013886      0xdc4 build/usbd_core.o
 .debug_loc     0x000000000001464a     0x16e1 build/usbd_ctlreq.o
 .debug_loc     0x0000000000015d2b      0x358 build/usbd_ioreq.o
 .debug_loc     0x0000000000016083      0x99f build/usbd_cdc.o
 .debug_loc     0x0000000000016a22       0x44 build/dma.o
 .debug_loc     0x0000000000016a66      0x8dc build/usbd_uvc.o
 .debug_loc     0x0000000000017342       0x52 build/usbd_uvc_if.o
 .debug_loc     0x0000000000017394       0xad build/rng.o
 .debug_loc     0x0000000000017441      0x3d5 build/stm32h7xx_hal_rng.o
 .debug_loc     0x0000000000017816      0x10b build/dcmi.o
 .debug_loc     0x0000000000017921      0x9bc build/stm32h7xx_hal_dcmi.o
 .debug_loc     0x00000000000182dd      0x106 build/retarget.o

.debug_aranges  0x0000000000000000     0x1358
 .debug_aranges
                0x0000000000000000       0x68 build/main.o
 .debug_aranges
                0x0000000000000068       0x20 build/gpio.o
 .debug_aranges
                0x0000000000000088       0x30 build/usart.o
 .debug_aranges
                0x00000000000000b8       0x88 build/stm32h7xx_it.o
 .debug_aranges
                0x0000000000000140       0x20 build/stm32h7xx_hal_msp.o
 .debug_aranges
                0x0000000000000160       0x20 build/usb_device.o
 .debug_aranges
                0x0000000000000180       0x80 build/usbd_desc.o
 .debug_aranges
                0x0000000000000200       0x60 build/usbd_cdc_if.o
 .debug_aranges
                0x0000000000000260      0x110 build/usbd_conf.o
 .debug_aranges
                0x0000000000000370       0xd0 build/stm32h7xx_hal_pcd.o
 .debug_aranges
                0x0000000000000440       0x58 build/stm32h7xx_hal_pcd_ex.o
 .debug_aranges
                0x0000000000000498      0x1a0 build/stm32h7xx_ll_usb.o
 .debug_aranges
                0x0000000000000638       0x88 build/stm32h7xx_hal_rcc.o
 .debug_aranges
                0x00000000000006c0       0xe0 build/stm32h7xx_hal_rcc_ex.o
 .debug_aranges
                0x00000000000007a0       0x58 build/stm32h7xx_hal_gpio.o
 .debug_aranges
                0x00000000000007f8       0x98 build/stm32h7xx_hal_dma.o
 .debug_aranges
                0x0000000000000890       0x60 build/stm32h7xx_hal_dma_ex.o
 .debug_aranges
                0x00000000000008f0      0x128 build/stm32h7xx_hal_pwr_ex.o
 .debug_aranges
                0x0000000000000a18       0xb0 build/stm32h7xx_hal_cortex.o
 .debug_aranges
                0x0000000000000ac8      0x190 build/stm32h7xx_hal.o
 .debug_aranges
                0x0000000000000c58      0x200 build/stm32h7xx_hal_uart.o
 .debug_aranges
                0x0000000000000e58       0x88 build/stm32h7xx_hal_uart_ex.o
 .debug_aranges
                0x0000000000000ee0       0x28 build/system_stm32h7xx.o
 .debug_aranges
                0x0000000000000f08       0xb0 build/usbd_core.o
 .debug_aranges
                0x0000000000000fb8       0x48 build/usbd_ctlreq.o
 .debug_aranges
                0x0000000000001000       0x50 build/usbd_ioreq.o
 .debug_aranges
                0x0000000000001050       0x90 build/usbd_cdc.o
 .debug_aranges
                0x00000000000010e0       0x20 build/dma.o
 .debug_aranges
                0x0000000000001100       0x78 build/usbd_uvc.o
 .debug_aranges
                0x0000000000001178       0x30 build/usbd_uvc_if.o
 .debug_aranges
                0x00000000000011a8       0x30 build/rng.o
 .debug_aranges
                0x00000000000011d8       0x68 build/stm32h7xx_hal_rng.o
 .debug_aranges
                0x0000000000001240       0x30 build/dcmi.o
 .debug_aranges
                0x0000000000001270       0x98 build/stm32h7xx_hal_dcmi.o
 .debug_aranges
                0x0000000000001308       0x28 build/retarget.o
 .debug_aranges
                0x0000000000001330       0x28 build/startup_stm32h743xx.o

.debug_ranges   0x0000000000000000     0x1e10
 .debug_ranges  0x0000000000000000      0x128 build/main.o
 .debug_ranges  0x0000000000000128       0x48 build/gpio.o
 .debug_ranges  0x0000000000000170       0x70 build/usart.o
 .debug_ranges  0x00000000000001e0       0x78 build/stm32h7xx_it.o
 .debug_ranges  0x0000000000000258       0x28 build/stm32h7xx_hal_msp.o
 .debug_ranges  0x0000000000000280       0x10 build/usb_device.o
 .debug_ranges  0x0000000000000290      0x100 build/usbd_desc.o
 .debug_ranges  0x0000000000000390       0x50 build/usbd_cdc_if.o
 .debug_ranges  0x00000000000003e0      0x2d0 build/usbd_conf.o
 .debug_ranges  0x00000000000006b0      0x128 build/stm32h7xx_hal_pcd.o
 .debug_ranges  0x00000000000007d8       0x68 build/stm32h7xx_hal_pcd_ex.o
 .debug_ranges  0x0000000000000840      0x1e0 build/stm32h7xx_ll_usb.o
 .debug_ranges  0x0000000000000a20      0x190 build/stm32h7xx_hal_rcc.o
 .debug_ranges  0x0000000000000bb0      0x100 build/stm32h7xx_hal_rcc_ex.o
 .debug_ranges  0x0000000000000cb0       0x80 build/stm32h7xx_hal_gpio.o
 .debug_ranges  0x0000000000000d30       0xa8 build/stm32h7xx_hal_dma.o
 .debug_ranges  0x0000000000000dd8       0x50 build/stm32h7xx_hal_dma_ex.o
 .debug_ranges  0x0000000000000e28      0x190 build/stm32h7xx_hal_pwr_ex.o
 .debug_ranges  0x0000000000000fb8      0x1a0 build/stm32h7xx_hal_cortex.o
 .debug_ranges  0x0000000000001158      0x180 build/stm32h7xx_hal.o
 .debug_ranges  0x00000000000012d8      0x4c0 build/stm32h7xx_hal_uart.o
 .debug_ranges  0x0000000000001798       0xd0 build/stm32h7xx_hal_uart_ex.o
 .debug_ranges  0x0000000000001868       0x18 build/system_stm32h7xx.o
 .debug_ranges  0x0000000000001880       0xa0 build/usbd_core.o
 .debug_ranges  0x0000000000001920      0x1a8 build/usbd_ctlreq.o
 .debug_ranges  0x0000000000001ac8       0x40 build/usbd_ioreq.o
 .debug_ranges  0x0000000000001b08       0x80 build/usbd_cdc.o
 .debug_ranges  0x0000000000001b88       0x30 build/dma.o
 .debug_ranges  0x0000000000001bb8       0xa0 build/usbd_uvc.o
 .debug_ranges  0x0000000000001c58       0x20 build/usbd_uvc_if.o
 .debug_ranges  0x0000000000001c78       0x20 build/rng.o
 .debug_ranges  0x0000000000001c98       0x58 build/stm32h7xx_hal_rng.o
 .debug_ranges  0x0000000000001cf0       0x60 build/dcmi.o
 .debug_ranges  0x0000000000001d50       0x88 build/stm32h7xx_hal_dcmi.o
 .debug_ranges  0x0000000000001dd8       0x18 build/retarget.o
 .debug_ranges  0x0000000000001df0       0x20 build/startup_stm32h743xx.o

.debug_line     0x0000000000000000    0x1a5bf
 .debug_line    0x0000000000000000      0x8bd build/main.o
 .debug_line    0x00000000000008bd      0x3a0 build/gpio.o
 .debug_line    0x0000000000000c5d      0x542 build/usart.o
 .debug_line    0x000000000000119f      0x3f3 build/stm32h7xx_it.o
 .debug_line    0x0000000000001592      0x26f build/stm32h7xx_hal_msp.o
 .debug_line    0x0000000000001801      0x454 build/usb_device.o
 .debug_line    0x0000000000001c55      0x51d build/usbd_desc.o
 .debug_line    0x0000000000002172      0x43c build/usbd_cdc_if.o
 .debug_line    0x00000000000025ae      0xc86 build/usbd_conf.o
 .debug_line    0x0000000000003234     0x13f5 build/stm32h7xx_hal_pcd.o
 .debug_line    0x0000000000004629      0x603 build/stm32h7xx_hal_pcd_ex.o
 .debug_line    0x0000000000004c2c     0x212d build/stm32h7xx_ll_usb.o
 .debug_line    0x0000000000006d59     0x1384 build/stm32h7xx_hal_rcc.o
 .debug_line    0x00000000000080dd     0x1a1b build/stm32h7xx_hal_rcc_ex.o
 .debug_line    0x0000000000009af8      0x821 build/stm32h7xx_hal_gpio.o
 .debug_line    0x000000000000a319     0x1a45 build/stm32h7xx_hal_dma.o
 .debug_line    0x000000000000bd5e      0x9b9 build/stm32h7xx_hal_dma_ex.o
 .debug_line    0x000000000000c717      0xb64 build/stm32h7xx_hal_pwr_ex.o
 .debug_line    0x000000000000d27b      0x8d0 build/stm32h7xx_hal_cortex.o
 .debug_line    0x000000000000db4b      0xa0b build/stm32h7xx_hal.o
 .debug_line    0x000000000000e556     0x5bef build/stm32h7xx_hal_uart.o
 .debug_line    0x0000000000014145      0xe8d build/stm32h7xx_hal_uart_ex.o
 .debug_line    0x0000000000014fd2      0x4b1 build/system_stm32h7xx.o
 .debug_line    0x0000000000015483      0x9a0 build/usbd_core.o
 .debug_line    0x0000000000015e23      0xbe5 build/usbd_ctlreq.o
 .debug_line    0x0000000000016a08      0x40f build/usbd_ioreq.o
 .debug_line    0x0000000000016e17      0x980 build/usbd_cdc.o
 .debug_line    0x0000000000017797      0x28d build/dma.o
 .debug_line    0x0000000000017a24      0x859 build/usbd_uvc.o
 .debug_line    0x000000000001827d      0x34d build/usbd_uvc_if.o
 .debug_line    0x00000000000185ca      0x34e build/rng.o
 .debug_line    0x0000000000018918      0x698 build/stm32h7xx_hal_rng.o
 .debug_line    0x0000000000018fb0      0x4fc build/dcmi.o
 .debug_line    0x00000000000194ac      0xda2 build/stm32h7xx_hal_dcmi.o
 .debug_line    0x000000000001a24e      0x2fb build/retarget.o
 .debug_line    0x000000000001a549       0x76 build/startup_stm32h743xx.o

.debug_str      0x0000000000000000     0x78a3
 .debug_str     0x0000000000000000     0x14f5 build/main.o
                                       0x161e (size before relaxing)
 .debug_str     0x00000000000014f5      0x23f build/gpio.o
                                        0xb7b (size before relaxing)
 .debug_str     0x0000000000001734      0xc88 build/usart.o
                                       0x1d76 (size before relaxing)
 .debug_str     0x00000000000023bc      0x512 build/stm32h7xx_it.o
                                       0x151b (size before relaxing)
 .debug_str     0x00000000000028ce       0x29 build/stm32h7xx_hal_msp.o
                                        0xade (size before relaxing)
 .debug_str     0x00000000000028f7      0x49f build/usb_device.o
                                        0xe21 (size before relaxing)
 .debug_str     0x0000000000002d96      0x25f build/usbd_desc.o
                                        0xc1f (size before relaxing)
 .debug_str     0x0000000000002ff5      0x1ba build/usbd_cdc_if.o
                                        0xef2 (size before relaxing)
 .debug_str     0x00000000000031af      0x610 build/usbd_conf.o
                                       0x2523 (size before relaxing)
 .debug_str     0x00000000000037bf      0x5b2 build/stm32h7xx_hal_pcd.o
                                       0x144b (size before relaxing)
 .debug_str     0x0000000000003d71      0x19a build/stm32h7xx_hal_pcd_ex.o
                                        0xe5f (size before relaxing)
 .debug_str     0x0000000000003f0b      0x440 build/stm32h7xx_ll_usb.o
                                       0x138c (size before relaxing)
 .debug_str     0x000000000000434b      0x30c build/stm32h7xx_hal_rcc.o
                                       0x1083 (size before relaxing)
 .debug_str     0x0000000000004657      0x66b build/stm32h7xx_hal_rcc_ex.o
                                       0x1584 (size before relaxing)
 .debug_str     0x0000000000004cc2       0xe4 build/stm32h7xx_hal_gpio.o
                                        0xd89 (size before relaxing)
 .debug_str     0x0000000000004da6      0x3f0 build/stm32h7xx_hal_dma.o
                                       0x103b (size before relaxing)
 .debug_str     0x0000000000005196      0x26c build/stm32h7xx_hal_dma_ex.o
                                        0xe80 (size before relaxing)
 .debug_str     0x0000000000005402      0x533 build/stm32h7xx_hal_pwr_ex.o
                                       0x1100 (size before relaxing)
 .debug_str     0x0000000000005935      0x46a build/stm32h7xx_hal_cortex.o
                                       0x16ed (size before relaxing)
 .debug_str     0x0000000000005d9f      0x565 build/stm32h7xx_hal.o
                                       0x1ab7 (size before relaxing)
 .debug_str     0x0000000000006304      0x842 build/stm32h7xx_hal_uart.o
                                       0x1acf (size before relaxing)
 .debug_str     0x0000000000006b46      0x22c build/stm32h7xx_hal_uart_ex.o
                                       0x11be (size before relaxing)
 .debug_str     0x0000000000006d72       0x3d build/system_stm32h7xx.o
                                        0xdb7 (size before relaxing)
 .debug_str     0x0000000000006daf      0x13e build/usbd_core.o
                                        0xf48 (size before relaxing)
 .debug_str     0x0000000000006eed      0x109 build/usbd_ctlreq.o
                                        0xe9a (size before relaxing)
 .debug_str     0x0000000000006ff6       0x60 build/usbd_ioreq.o
                                        0xd8f (size before relaxing)
 .debug_str     0x0000000000007056      0x189 build/usbd_cdc.o
                                       0x1385 (size before relaxing)
 .debug_str     0x00000000000071df        0xf build/dma.o
                                       0x1315 (size before relaxing)
 .debug_str     0x00000000000071ee      0x2d9 build/usbd_uvc.o
                                       0x1071 (size before relaxing)
 .debug_str     0x00000000000074c7       0x61 build/usbd_uvc_if.o
                                        0xd32 (size before relaxing)
 .debug_str     0x0000000000007528       0x48 build/rng.o
                                        0xf96 (size before relaxing)
 .debug_str     0x0000000000007570      0x11d build/stm32h7xx_hal_rng.o
                                        0xaf1 (size before relaxing)
 .debug_str     0x000000000000768d       0x4d build/dcmi.o
                                       0x1959 (size before relaxing)
 .debug_str     0x00000000000076da      0x184 build/stm32h7xx_hal_dcmi.o
                                       0x10a8 (size before relaxing)
 .debug_str     0x000000000000785e       0x20 build/retarget.o
                                        0xe1b (size before relaxing)
 .debug_str     0x000000000000787e       0x25 build/startup_stm32h743xx.o
                                         0x63 (size before relaxing)

.comment        0x0000000000000000       0x68
 .comment       0x0000000000000000       0x68 build/main.o
                                         0x69 (size before relaxing)
 .comment       0x0000000000000068       0x69 build/gpio.o
 .comment       0x0000000000000068       0x69 build/usart.o
 .comment       0x0000000000000068       0x69 build/stm32h7xx_it.o
 .comment       0x0000000000000068       0x69 build/stm32h7xx_hal_msp.o
 .comment       0x0000000000000068       0x69 build/usb_device.o
 .comment       0x0000000000000068       0x69 build/usbd_desc.o
 .comment       0x0000000000000068       0x69 build/usbd_cdc_if.o
 .comment       0x0000000000000068       0x69 build/usbd_conf.o
 .comment       0x0000000000000068       0x69 build/stm32h7xx_hal_pcd.o
 .comment       0x0000000000000068       0x69 build/stm32h7xx_hal_pcd_ex.o
 .comment       0x0000000000000068       0x69 build/stm32h7xx_ll_usb.o
 .comment       0x0000000000000068       0x69 build/stm32h7xx_hal_rcc.o
 .comment       0x0000000000000068       0x69 build/stm32h7xx_hal_rcc_ex.o
 .comment       0x0000000000000068       0x69 build/stm32h7xx_hal_gpio.o
 .comment       0x0000000000000068       0x69 build/stm32h7xx_hal_dma.o
 .comment       0x0000000000000068       0x69 build/stm32h7xx_hal_dma_ex.o
 .comment       0x0000000000000068       0x69 build/stm32h7xx_hal_pwr_ex.o
 .comment       0x0000000000000068       0x69 build/stm32h7xx_hal_cortex.o
 .comment       0x0000000000000068       0x69 build/stm32h7xx_hal.o
 .comment       0x0000000000000068       0x69 build/stm32h7xx_hal_uart.o
 .comment       0x0000000000000068       0x69 build/stm32h7xx_hal_uart_ex.o
 .comment       0x0000000000000068       0x69 build/system_stm32h7xx.o
 .comment       0x0000000000000068       0x69 build/usbd_core.o
 .comment       0x0000000000000068       0x69 build/usbd_ctlreq.o
 .comment       0x0000000000000068       0x69 build/usbd_ioreq.o
 .comment       0x0000000000000068       0x69 build/usbd_cdc.o
 .comment       0x0000000000000068       0x69 build/dma.o
 .comment       0x0000000000000068       0x69 build/usbd_uvc.o
 .comment       0x0000000000000068       0x69 build/usbd_uvc_if.o
 .comment       0x0000000000000068       0x69 build/rng.o
 .comment       0x0000000000000068       0x69 build/stm32h7xx_hal_rng.o
 .comment       0x0000000000000068       0x69 build/dcmi.o
 .comment       0x0000000000000068       0x69 build/stm32h7xx_hal_dcmi.o
 .comment       0x0000000000000068       0x69 build/retarget.o

.debug_frame    0x0000000000000000     0x4ddc
 .debug_frame   0x0000000000000000      0x158 build/main.o
 .debug_frame   0x0000000000000158       0x44 build/gpio.o
 .debug_frame   0x000000000000019c       0x94 build/usart.o
 .debug_frame   0x0000000000000230      0x110 build/stm32h7xx_it.o
 .debug_frame   0x0000000000000340       0x28 build/stm32h7xx_hal_msp.o
 .debug_frame   0x0000000000000368       0x40 build/usb_device.o
 .debug_frame   0x00000000000003a8      0x1b4 build/usbd_desc.o
 .debug_frame   0x000000000000055c      0x120 build/usbd_cdc_if.o
 .debug_frame   0x000000000000067c      0x308 build/usbd_conf.o
 .debug_frame   0x0000000000000984      0x364 build/stm32h7xx_hal_pcd.o
 .debug_frame   0x0000000000000ce8      0x100 build/stm32h7xx_hal_pcd_ex.o
 .debug_frame   0x0000000000000de8      0x600 build/stm32h7xx_ll_usb.o
 .debug_frame   0x00000000000013e8      0x1f4 build/stm32h7xx_hal_rcc.o
 .debug_frame   0x00000000000015dc      0x2f8 build/stm32h7xx_hal_rcc_ex.o
 .debug_frame   0x00000000000018d4      0x12c build/stm32h7xx_hal_gpio.o
 .debug_frame   0x0000000000001a00      0x2f0 build/stm32h7xx_hal_dma.o
 .debug_frame   0x0000000000001cf0      0x178 build/stm32h7xx_hal_dma_ex.o
 .debug_frame   0x0000000000001e68      0x350 build/stm32h7xx_hal_pwr_ex.o
 .debug_frame   0x00000000000021b8      0x1b0 build/stm32h7xx_hal_cortex.o
 .debug_frame   0x0000000000002368      0x3cc build/stm32h7xx_hal.o
 .debug_frame   0x0000000000002734      0x908 build/stm32h7xx_hal_uart.o
 .debug_frame   0x000000000000303c      0x224 build/stm32h7xx_hal_uart_ex.o
 .debug_frame   0x0000000000003260       0x50 build/system_stm32h7xx.o
 .debug_frame   0x00000000000032b0      0x2a0 build/usbd_core.o
 .debug_frame   0x0000000000003550      0x104 build/usbd_ctlreq.o
 .debug_frame   0x0000000000003654       0xd0 build/usbd_ioreq.o
 .debug_frame   0x0000000000003724      0x1bc build/usbd_cdc.o
 .debug_frame   0x00000000000038e0       0x38 build/dma.o
 .debug_frame   0x0000000000003918      0x160 build/usbd_uvc.o
 .debug_frame   0x0000000000003a78       0x60 build/usbd_uvc_if.o
 .debug_frame   0x0000000000003ad8       0x6c build/rng.o
 .debug_frame   0x0000000000003b44      0x134 build/stm32h7xx_hal_rng.o
 .debug_frame   0x0000000000003c78       0x88 build/dcmi.o
 .debug_frame   0x0000000000003d00      0x26c build/stm32h7xx_hal_dcmi.o
 .debug_frame   0x0000000000003f6c       0x58 build/retarget.o
 .debug_frame   0x0000000000003fc4       0x2c c:/arm_tool/gcc/bin/../lib/gcc/arm-none-eabi/8.2.1/../../../../arm-none-eabi/lib/thumb/v7e-m+dp/hard\libc_nano.a(lib_a-init.o)
 .debug_frame   0x0000000000003ff0       0x20 c:/arm_tool/gcc/bin/../lib/gcc/arm-none-eabi/8.2.1/../../../../arm-none-eabi/lib/thumb/v7e-m+dp/hard\libc_nano.a(lib_a-memset.o)
 .debug_frame   0x0000000000004010       0x9c c:/arm_tool/gcc/bin/../lib/gcc/arm-none-eabi/8.2.1/../../../../arm-none-eabi/lib/thumb/v7e-m+dp/hard\libc_nano.a(lib_a-nano-vfprintf_float.o)
 .debug_frame   0x00000000000040ac       0x60 c:/arm_tool/gcc/bin/../lib/gcc/arm-none-eabi/8.2.1/../../../../arm-none-eabi/lib/thumb/v7e-m+dp/hard\libc_nano.a(lib_a-nano-vfprintf_i.o)
 .debug_frame   0x000000000000410c       0x74 c:/arm_tool/gcc/bin/../lib/gcc/arm-none-eabi/8.2.1/../../../../arm-none-eabi/lib/thumb/v7e-m+dp/hard\libc_nano.a(lib_a-printf.o)
 .debug_frame   0x0000000000004180       0x3c c:/arm_tool/gcc/bin/../lib/gcc/arm-none-eabi/8.2.1/../../../../arm-none-eabi/lib/thumb/v7e-m+dp/hard\libc_nano.a(lib_a-puts.o)
 .debug_frame   0x00000000000041bc       0x40 c:/arm_tool/gcc/bin/../lib/gcc/arm-none-eabi/8.2.1/../../../../arm-none-eabi/lib/thumb/v7e-m+dp/hard\libc_nano.a(lib_a-wbuf.o)
 .debug_frame   0x00000000000041fc       0x2c c:/arm_tool/gcc/bin/../lib/gcc/arm-none-eabi/8.2.1/../../../../arm-none-eabi/lib/thumb/v7e-m+dp/hard\libc_nano.a(lib_a-wsetup.o)
 .debug_frame   0x0000000000004228       0x6c c:/arm_tool/gcc/bin/../lib/gcc/arm-none-eabi/8.2.1/../../../../arm-none-eabi/lib/thumb/v7e-m+dp/hard\libc_nano.a(lib_a-dtoa.o)
 .debug_frame   0x0000000000004294       0x5c c:/arm_tool/gcc/bin/../lib/gcc/arm-none-eabi/8.2.1/../../../../arm-none-eabi/lib/thumb/v7e-m+dp/hard\libc_nano.a(lib_a-fflush.o)
 .debug_frame   0x00000000000042f0      0x14c c:/arm_tool/gcc/bin/../lib/gcc/arm-none-eabi/8.2.1/../../../../arm-none-eabi/lib/thumb/v7e-m+dp/hard\libc_nano.a(lib_a-findfp.o)
 .debug_frame   0x000000000000443c       0x54 c:/arm_tool/gcc/bin/../lib/gcc/arm-none-eabi/8.2.1/../../../../arm-none-eabi/lib/thumb/v7e-m+dp/hard\libc_nano.a(lib_a-fwalk.o)
 .debug_frame   0x0000000000004490       0x40 c:/arm_tool/gcc/bin/../lib/gcc/arm-none-eabi/8.2.1/../../../../arm-none-eabi/lib/thumb/v7e-m+dp/hard\libc_nano.a(lib_a-localeconv.o)
 .debug_frame   0x00000000000044d0       0xb0 c:/arm_tool/gcc/bin/../lib/gcc/arm-none-eabi/8.2.1/../../../../arm-none-eabi/lib/thumb/v7e-m+dp/hard\libc_nano.a(lib_a-lock.o)
 .debug_frame   0x0000000000004580       0x58 c:/arm_tool/gcc/bin/../lib/gcc/arm-none-eabi/8.2.1/../../../../arm-none-eabi/lib/thumb/v7e-m+dp/hard\libc_nano.a(lib_a-makebuf.o)
 .debug_frame   0x00000000000045d8       0x30 c:/arm_tool/gcc/bin/../lib/gcc/arm-none-eabi/8.2.1/../../../../arm-none-eabi/lib/thumb/v7e-m+dp/hard\libc_nano.a(lib_a-malloc.o)
 .debug_frame   0x0000000000004608       0x28 c:/arm_tool/gcc/bin/../lib/gcc/arm-none-eabi/8.2.1/../../../../arm-none-eabi/lib/thumb/v7e-m+dp/hard\libc_nano.a(lib_a-memcpy-stub.o)
 .debug_frame   0x0000000000004630      0x238 c:/arm_tool/gcc/bin/../lib/gcc/arm-none-eabi/8.2.1/../../../../arm-none-eabi/lib/thumb/v7e-m+dp/hard\libc_nano.a(lib_a-mprec.o)
 .debug_frame   0x0000000000004868       0x2c c:/arm_tool/gcc/bin/../lib/gcc/arm-none-eabi/8.2.1/../../../../arm-none-eabi/lib/thumb/v7e-m+dp/hard\libc_nano.a(lib_a-nano-callocr.o)
 .debug_frame   0x0000000000004894       0x38 c:/arm_tool/gcc/bin/../lib/gcc/arm-none-eabi/8.2.1/../../../../arm-none-eabi/lib/thumb/v7e-m+dp/hard\libc_nano.a(lib_a-nano-freer.o)
 .debug_frame   0x00000000000048cc       0x30 c:/arm_tool/gcc/bin/../lib/gcc/arm-none-eabi/8.2.1/../../../../arm-none-eabi/lib/thumb/v7e-m+dp/hard\libc_nano.a(lib_a-nano-mallocr.o)
 .debug_frame   0x00000000000048fc       0xac c:/arm_tool/gcc/bin/../lib/gcc/arm-none-eabi/8.2.1/../../../../arm-none-eabi/lib/thumb/v7e-m+dp/hard\libc_nano.a(lib_a-nano-vfprintf.o)
 .debug_frame   0x00000000000049a8       0x2c c:/arm_tool/gcc/bin/../lib/gcc/arm-none-eabi/8.2.1/../../../../arm-none-eabi/lib/thumb/v7e-m+dp/hard\libc_nano.a(lib_a-sbrkr.o)
 .debug_frame   0x00000000000049d4       0x88 c:/arm_tool/gcc/bin/../lib/gcc/arm-none-eabi/8.2.1/../../../../arm-none-eabi/lib/thumb/v7e-m+dp/hard\libc_nano.a(lib_a-stdio.o)
 .debug_frame   0x0000000000004a5c       0x2c c:/arm_tool/gcc/bin/../lib/gcc/arm-none-eabi/8.2.1/../../../../arm-none-eabi/lib/thumb/v7e-m+dp/hard\libc_nano.a(lib_a-writer.o)
 .debug_frame   0x0000000000004a88       0x2c c:/arm_tool/gcc/bin/../lib/gcc/arm-none-eabi/8.2.1/../../../../arm-none-eabi/lib/thumb/v7e-m+dp/hard\libc_nano.a(lib_a-closer.o)
 .debug_frame   0x0000000000004ab4       0x2c c:/arm_tool/gcc/bin/../lib/gcc/arm-none-eabi/8.2.1/../../../../arm-none-eabi/lib/thumb/v7e-m+dp/hard\libc_nano.a(lib_a-fstatr.o)
 .debug_frame   0x0000000000004ae0       0x2c c:/arm_tool/gcc/bin/../lib/gcc/arm-none-eabi/8.2.1/../../../../arm-none-eabi/lib/thumb/v7e-m+dp/hard\libc_nano.a(lib_a-isattyr.o)
 .debug_frame   0x0000000000004b0c       0x48 c:/arm_tool/gcc/bin/../lib/gcc/arm-none-eabi/8.2.1/../../../../arm-none-eabi/lib/thumb/v7e-m+dp/hard\libc_nano.a(lib_a-locale.o)
 .debug_frame   0x0000000000004b54       0x2c c:/arm_tool/gcc/bin/../lib/gcc/arm-none-eabi/8.2.1/../../../../arm-none-eabi/lib/thumb/v7e-m+dp/hard\libc_nano.a(lib_a-lseekr.o)
 .debug_frame   0x0000000000004b80       0x48 c:/arm_tool/gcc/bin/../lib/gcc/arm-none-eabi/8.2.1/../../../../arm-none-eabi/lib/thumb/v7e-m+dp/hard\libc_nano.a(lib_a-mbtowc_r.o)
 .debug_frame   0x0000000000004bc8       0x30 c:/arm_tool/gcc/bin/../lib/gcc/arm-none-eabi/8.2.1/../../../../arm-none-eabi/lib/thumb/v7e-m+dp/hard\libc_nano.a(lib_a-mlock.o)
 .debug_frame   0x0000000000004bf8       0x2c c:/arm_tool/gcc/bin/../lib/gcc/arm-none-eabi/8.2.1/../../../../arm-none-eabi/lib/thumb/v7e-m+dp/hard\libc_nano.a(lib_a-readr.o)
 .debug_frame   0x0000000000004c24       0x5c c:/arm_tool/gcc/bin/../lib/gcc/arm-none-eabi/8.2.1/../../../../arm-none-eabi/lib/thumb/v7e-m+dp/hard\libc_nano.a(lib_a-reent.o)
 .debug_frame   0x0000000000004c80       0x3c c:/arm_tool/gcc/bin/../lib/gcc/arm-none-eabi/8.2.1/../../../../arm-none-eabi/lib/thumb/v7e-m+dp/hard\libc_nano.a(lib_a-wctomb_r.o)
 .debug_frame   0x0000000000004cbc       0x20 c:/arm_tool/gcc/bin/../lib/gcc/arm-none-eabi/8.2.1/../../../../arm-none-eabi/lib/thumb/v7e-m+dp/hard\libnosys.a(close.o)
 .debug_frame   0x0000000000004cdc       0x20 c:/arm_tool/gcc/bin/../lib/gcc/arm-none-eabi/8.2.1/../../../../arm-none-eabi/lib/thumb/v7e-m+dp/hard\libnosys.a(fstat.o)
 .debug_frame   0x0000000000004cfc       0x20 c:/arm_tool/gcc/bin/../lib/gcc/arm-none-eabi/8.2.1/../../../../arm-none-eabi/lib/thumb/v7e-m+dp/hard\libnosys.a(isatty.o)
 .debug_frame   0x0000000000004d1c       0x20 c:/arm_tool/gcc/bin/../lib/gcc/arm-none-eabi/8.2.1/../../../../arm-none-eabi/lib/thumb/v7e-m+dp/hard\libnosys.a(lseek.o)
 .debug_frame   0x0000000000004d3c       0x20 c:/arm_tool/gcc/bin/../lib/gcc/arm-none-eabi/8.2.1/../../../../arm-none-eabi/lib/thumb/v7e-m+dp/hard\libnosys.a(read.o)
 .debug_frame   0x0000000000004d5c       0x20 c:/arm_tool/gcc/bin/../lib/gcc/arm-none-eabi/8.2.1/../../../../arm-none-eabi/lib/thumb/v7e-m+dp/hard\libnosys.a(sbrk.o)
 .debug_frame   0x0000000000004d7c       0x2c c:/arm_tool/gcc/bin/../lib/gcc/arm-none-eabi/8.2.1/thumb/v7e-m+dp/hard\libgcc.a(_aeabi_uldivmod.o)
 .debug_frame   0x0000000000004da8       0x34 c:/arm_tool/gcc/bin/../lib/gcc/arm-none-eabi/8.2.1/thumb/v7e-m+dp/hard\libgcc.a(_udivmoddi4.o)

.stab           0x0000000000000000       0x84
 .stab          0x0000000000000000       0x24 c:/arm_tool/gcc/bin/../lib/gcc/arm-none-eabi/8.2.1/../../../../arm-none-eabi/lib/thumb/v7e-m+dp/hard\libnosys.a(close.o)
 .stab          0x0000000000000024       0x18 c:/arm_tool/gcc/bin/../lib/gcc/arm-none-eabi/8.2.1/../../../../arm-none-eabi/lib/thumb/v7e-m+dp/hard\libnosys.a(fstat.o)
                                         0x24 (size before relaxing)
 .stab          0x000000000000003c       0x18 c:/arm_tool/gcc/bin/../lib/gcc/arm-none-eabi/8.2.1/../../../../arm-none-eabi/lib/thumb/v7e-m+dp/hard\libnosys.a(isatty.o)
                                         0x24 (size before relaxing)
 .stab          0x0000000000000054       0x18 c:/arm_tool/gcc/bin/../lib/gcc/arm-none-eabi/8.2.1/../../../../arm-none-eabi/lib/thumb/v7e-m+dp/hard\libnosys.a(lseek.o)
                                         0x24 (size before relaxing)
 .stab          0x000000000000006c       0x18 c:/arm_tool/gcc/bin/../lib/gcc/arm-none-eabi/8.2.1/../../../../arm-none-eabi/lib/thumb/v7e-m+dp/hard\libnosys.a(read.o)
                                         0x24 (size before relaxing)

.stabstr        0x0000000000000000      0x117
 .stabstr       0x0000000000000000      0x117 c:/arm_tool/gcc/bin/../lib/gcc/arm-none-eabi/8.2.1/../../../../arm-none-eabi/lib/thumb/v7e-m+dp/hard\libnosys.a(close.o)

Cross Reference Table

Symbol                                            File
ADC3_IRQHandler                                   build/startup_stm32h743xx.o
ADC_IRQHandler                                    build/startup_stm32h743xx.o
BDMA_Channel0_IRQHandler                          build/startup_stm32h743xx.o
BDMA_Channel1_IRQHandler                          build/startup_stm32h743xx.o
BDMA_Channel2_IRQHandler                          build/startup_stm32h743xx.o
BDMA_Channel3_IRQHandler                          build/startup_stm32h743xx.o
BDMA_Channel4_IRQHandler                          build/startup_stm32h743xx.o
BDMA_Channel5_IRQHandler                          build/startup_stm32h743xx.o
BDMA_Channel6_IRQHandler                          build/startup_stm32h743xx.o
BDMA_Channel7_IRQHandler                          build/startup_stm32h743xx.o
BusFault_Handler                                  build/stm32h7xx_it.o
CDC_Transmit_FS                                   build/usbd_cdc_if.o
CDC_Transmit_HS                                   build/usbd_cdc_if.o
CEC_IRQHandler                                    build/startup_stm32h743xx.o
COMP1_IRQHandler                                  build/startup_stm32h743xx.o
CRS_IRQHandler                                    build/startup_stm32h743xx.o
Camera_FreeFrame                                  build/usbd_uvc_if.o
Camera_GetFrame                                   build/usbd_uvc_if.o
Camera_Off                                        build/usbd_uvc_if.o
Camera_On                                         build/usbd_uvc_if.o
D1CorePrescTable                                  build/system_stm32h7xx.o
                                                  build/stm32h7xx_hal.o
                                                  build/stm32h7xx_hal_rcc_ex.o
                                                  build/stm32h7xx_hal_rcc.o
DCMI_IRQHandler                                   build/stm32h7xx_it.o
DFSDM1_FLT0_IRQHandler                            build/startup_stm32h743xx.o
DFSDM1_FLT1_IRQHandler                            build/startup_stm32h743xx.o
DFSDM1_FLT2_IRQHandler                            build/startup_stm32h743xx.o
DFSDM1_FLT3_IRQHandler                            build/startup_stm32h743xx.o
DMA1_Stream0_IRQHandler                           build/stm32h7xx_it.o
DMA1_Stream1_IRQHandler                           build/stm32h7xx_it.o
DMA1_Stream2_IRQHandler                           build/stm32h7xx_it.o
DMA1_Stream3_IRQHandler                           build/startup_stm32h743xx.o
DMA1_Stream4_IRQHandler                           build/startup_stm32h743xx.o
DMA1_Stream5_IRQHandler                           build/startup_stm32h743xx.o
DMA1_Stream6_IRQHandler                           build/startup_stm32h743xx.o
DMA1_Stream7_IRQHandler                           build/startup_stm32h743xx.o
DMA2D_IRQHandler                                  build/startup_stm32h743xx.o
DMA2_Stream0_IRQHandler                           build/startup_stm32h743xx.o
DMA2_Stream1_IRQHandler                           build/startup_stm32h743xx.o
DMA2_Stream2_IRQHandler                           build/startup_stm32h743xx.o
DMA2_Stream3_IRQHandler                           build/startup_stm32h743xx.o
DMA2_Stream4_IRQHandler                           build/startup_stm32h743xx.o
DMA2_Stream5_IRQHandler                           build/startup_stm32h743xx.o
DMA2_Stream6_IRQHandler                           build/startup_stm32h743xx.o
DMA2_Stream7_IRQHandler                           build/startup_stm32h743xx.o
DMAMUX1_OVR_IRQHandler                            build/startup_stm32h743xx.o
DMAMUX2_OVR_IRQHandler                            build/startup_stm32h743xx.o
DebugMon_Handler                                  build/stm32h7xx_it.o
Default_Handler                                   build/startup_stm32h743xx.o
ECC_IRQHandler                                    build/startup_stm32h743xx.o
ETH_IRQHandler                                    build/startup_stm32h743xx.o
ETH_WKUP_IRQHandler                               build/startup_stm32h743xx.o
EXTI0_IRQHandler                                  build/startup_stm32h743xx.o
EXTI15_10_IRQHandler                              build/startup_stm32h743xx.o
EXTI1_IRQHandler                                  build/startup_stm32h743xx.o
EXTI2_IRQHandler                                  build/startup_stm32h743xx.o
EXTI3_IRQHandler                                  build/startup_stm32h743xx.o
EXTI4_IRQHandler                                  build/startup_stm32h743xx.o
EXTI9_5_IRQHandler                                build/startup_stm32h743xx.o
Error_Handler                                     build/main.o
                                                  build/dcmi.o
                                                  build/rng.o
                                                  build/usbd_conf.o
                                                  build/usb_device.o
                                                  build/usart.o
FDCAN1_IT0_IRQHandler                             build/startup_stm32h743xx.o
FDCAN1_IT1_IRQHandler                             build/startup_stm32h743xx.o
FDCAN2_IT0_IRQHandler                             build/startup_stm32h743xx.o
FDCAN2_IT1_IRQHandler                             build/startup_stm32h743xx.o
FDCAN_CAL_IRQHandler                              build/startup_stm32h743xx.o
FLASH_CRC_WaitForLastOperation                    build/stm32h7xx_hal_flash.o
                                                  build/stm32h7xx_hal_flash_ex.o
FLASH_Erase_Sector                                build/stm32h7xx_hal_flash_ex.o
                                                  build/stm32h7xx_hal_flash.o
FLASH_IRQHandler                                  build/startup_stm32h743xx.o
FLASH_OB_WaitForLastOperation                     build/stm32h7xx_hal_flash.o
                                                  build/stm32h7xx_hal_flash_ex.o
FLASH_WaitForLastOperation                        build/stm32h7xx_hal_flash.o
                                                  build/stm32h7xx_hal_flash_ex.o
FMC_IRQHandler                                    build/startup_stm32h743xx.o
FPU_IRQHandler                                    build/startup_stm32h743xx.o
FS_Desc                                           build/usbd_desc.o
                                                  build/usb_device.o
HAL_DBGMCU_DisableDBGSleepMode                    build/stm32h7xx_hal.o
HAL_DBGMCU_DisableDBGStandbyMode                  build/stm32h7xx_hal.o
HAL_DBGMCU_DisableDBGStopMode                     build/stm32h7xx_hal.o
HAL_DBGMCU_EnableDBGSleepMode                     build/stm32h7xx_hal.o
HAL_DBGMCU_EnableDBGStandbyMode                   build/stm32h7xx_hal.o
HAL_DBGMCU_EnableDBGStopMode                      build/stm32h7xx_hal.o
HAL_DCMI_ConfigCrop                               build/stm32h7xx_hal_dcmi.o
HAL_DCMI_ConfigSyncUnmask                         build/stm32h7xx_hal_dcmi.o
HAL_DCMI_DeInit                                   build/stm32h7xx_hal_dcmi.o
HAL_DCMI_DisableCrop                              build/stm32h7xx_hal_dcmi.o
HAL_DCMI_EnableCrop                               build/stm32h7xx_hal_dcmi.o
HAL_DCMI_ErrorCallback                            build/main.o
HAL_DCMI_FrameEventCallback                       build/main.o
HAL_DCMI_GetError                                 build/stm32h7xx_hal_dcmi.o
HAL_DCMI_GetState                                 build/stm32h7xx_hal_dcmi.o
HAL_DCMI_IRQHandler                               build/stm32h7xx_hal_dcmi.o
                                                  build/stm32h7xx_it.o
HAL_DCMI_Init                                     build/stm32h7xx_hal_dcmi.o
                                                  build/dcmi.o
HAL_DCMI_LineEventCallback                        build/main.o
HAL_DCMI_MspDeInit                                build/dcmi.o
HAL_DCMI_MspInit                                  build/dcmi.o
HAL_DCMI_Resume                                   build/stm32h7xx_hal_dcmi.o
HAL_DCMI_Start_DMA                                build/stm32h7xx_hal_dcmi.o
                                                  build/main.o
HAL_DCMI_Stop                                     build/stm32h7xx_hal_dcmi.o
HAL_DCMI_Suspend                                  build/stm32h7xx_hal_dcmi.o
HAL_DCMI_VsyncEventCallback                       build/main.o
HAL_DMAEx_ChangeMemory                            build/stm32h7xx_hal_dma_ex.o
                                                  build/stm32h7xx_hal_dcmi.o
HAL_DMAEx_ConfigMuxRequestGenerator               build/stm32h7xx_hal_dma_ex.o
HAL_DMAEx_ConfigMuxSync                           build/stm32h7xx_hal_dma_ex.o
HAL_DMAEx_DisableMuxRequestGenerator              build/stm32h7xx_hal_dma_ex.o
HAL_DMAEx_EnableMuxRequestGenerator               build/stm32h7xx_hal_dma_ex.o
HAL_DMAEx_MUX_IRQHandler                          build/stm32h7xx_hal_dma_ex.o
HAL_DMAEx_MultiBufferStart                        build/stm32h7xx_hal_dma_ex.o
HAL_DMAEx_MultiBufferStart_IT                     build/stm32h7xx_hal_dma_ex.o
                                                  build/stm32h7xx_hal_dcmi.o
HAL_DMA_Abort                                     build/stm32h7xx_hal_dma.o
                                                  build/stm32h7xx_hal_dcmi.o
                                                  build/stm32h7xx_hal_uart.o
HAL_DMA_Abort_IT                                  build/stm32h7xx_hal_dma.o
                                                  build/stm32h7xx_hal_dcmi.o
                                                  build/stm32h7xx_hal_uart.o
                                                  build/stm32h7xx_hal_i2c.o
HAL_DMA_DeInit                                    build/stm32h7xx_hal_dma.o
                                                  build/dcmi.o
                                                  build/usart.o
HAL_DMA_GetError                                  build/stm32h7xx_hal_dma.o
                                                  build/stm32h7xx_hal_uart.o
                                                  build/stm32h7xx_hal_i2c.o
HAL_DMA_GetState                                  build/stm32h7xx_hal_dma.o
                                                  build/stm32h7xx_hal_i2c.o
HAL_DMA_IRQHandler                                build/stm32h7xx_hal_dma.o
                                                  build/stm32h7xx_it.o
HAL_DMA_Init                                      build/stm32h7xx_hal_dma.o
                                                  build/dcmi.o
                                                  build/usart.o
HAL_DMA_PollForTransfer                           build/stm32h7xx_hal_dma.o
HAL_DMA_RegisterCallback                          build/stm32h7xx_hal_dma.o
HAL_DMA_Start                                     build/stm32h7xx_hal_dma.o
HAL_DMA_Start_IT                                  build/stm32h7xx_hal_dma.o
                                                  build/stm32h7xx_hal_dcmi.o
                                                  build/stm32h7xx_hal_uart.o
                                                  build/stm32h7xx_hal_i2c.o
HAL_DMA_UnRegisterCallback                        build/stm32h7xx_hal_dma.o
HAL_DeInit                                        build/stm32h7xx_hal.o
HAL_Delay                                         build/stm32h7xx_hal.o
                                                  build/stm32h7xx_ll_usb.o
                                                  build/stm32h7xx_hal_pcd_ex.o
                                                  build/usbd_conf.o
                                                  build/main.o
HAL_DisableCompensationCell                       build/stm32h7xx_hal.o
HAL_EXTI_ClearConfigLine                          build/stm32h7xx_hal_exti.o
HAL_EXTI_ClearPending                             build/stm32h7xx_hal_exti.o
HAL_EXTI_D1_ClearFlag                             build/stm32h7xx_hal.o
HAL_EXTI_D1_EventInputConfig                      build/stm32h7xx_hal.o
HAL_EXTI_D3_EventInputConfig                      build/stm32h7xx_hal.o
HAL_EXTI_EdgeConfig                               build/stm32h7xx_hal.o
HAL_EXTI_GenerateSWI                              build/stm32h7xx_hal_exti.o
HAL_EXTI_GenerateSWInterrupt                      build/stm32h7xx_hal.o
HAL_EXTI_GetConfigLine                            build/stm32h7xx_hal_exti.o
HAL_EXTI_GetHandle                                build/stm32h7xx_hal_exti.o
HAL_EXTI_GetPending                               build/stm32h7xx_hal_exti.o
HAL_EXTI_IRQHandler                               build/stm32h7xx_hal_exti.o
HAL_EXTI_RegisterCallback                         build/stm32h7xx_hal_exti.o
HAL_EXTI_SetConfigLine                            build/stm32h7xx_hal_exti.o
HAL_EnableCompensationCell                        build/stm32h7xx_hal.o
HAL_FLASHEx_ComputeCRC                            build/stm32h7xx_hal_flash_ex.o
HAL_FLASHEx_Erase                                 build/stm32h7xx_hal_flash_ex.o
HAL_FLASHEx_Erase_IT                              build/stm32h7xx_hal_flash_ex.o
HAL_FLASHEx_Lock_Bank1                            build/stm32h7xx_hal_flash_ex.o
HAL_FLASHEx_Lock_Bank2                            build/stm32h7xx_hal_flash_ex.o
HAL_FLASHEx_OBGetConfig                           build/stm32h7xx_hal_flash_ex.o
HAL_FLASHEx_OBProgram                             build/stm32h7xx_hal_flash_ex.o
HAL_FLASHEx_Unlock_Bank1                          build/stm32h7xx_hal_flash_ex.o
HAL_FLASHEx_Unlock_Bank2                          build/stm32h7xx_hal_flash_ex.o
HAL_FLASH_EndOfOperationCallback                  build/stm32h7xx_hal_flash.o
HAL_FLASH_GetError                                build/stm32h7xx_hal_flash.o
HAL_FLASH_IRQHandler                              build/stm32h7xx_hal_flash.o
HAL_FLASH_Lock                                    build/stm32h7xx_hal_flash.o
HAL_FLASH_OB_Launch                               build/stm32h7xx_hal_flash.o
HAL_FLASH_OB_Lock                                 build/stm32h7xx_hal_flash.o
HAL_FLASH_OB_Unlock                               build/stm32h7xx_hal_flash.o
HAL_FLASH_OperationErrorCallback                  build/stm32h7xx_hal_flash.o
HAL_FLASH_Program                                 build/stm32h7xx_hal_flash.o
HAL_FLASH_Program_IT                              build/stm32h7xx_hal_flash.o
HAL_FLASH_Unlock                                  build/stm32h7xx_hal_flash.o
HAL_GPIO_DeInit                                   build/stm32h7xx_hal_gpio.o
                                                  build/dcmi.o
                                                  build/usbd_conf.o
                                                  build/usart.o
HAL_GPIO_EXTI_Callback                            build/stm32h7xx_hal_gpio.o
HAL_GPIO_EXTI_IRQHandler                          build/stm32h7xx_hal_gpio.o
HAL_GPIO_Init                                     build/stm32h7xx_hal_gpio.o
                                                  build/dcmi.o
                                                  build/stm32h7xx_hal_rcc.o
                                                  build/usbd_conf.o
                                                  build/usart.o
                                                  build/gpio.o
HAL_GPIO_LockPin                                  build/stm32h7xx_hal_gpio.o
HAL_GPIO_ReadPin                                  build/stm32h7xx_hal_gpio.o
HAL_GPIO_TogglePin                                build/stm32h7xx_hal_gpio.o
                                                  build/usbd_uvc_if.o
                                                  build/main.o
HAL_GPIO_WritePin                                 build/stm32h7xx_hal_gpio.o
                                                  build/gpio.o
                                                  build/main.o
HAL_GetCurrentCPUID                               build/stm32h7xx_hal_cortex.o
HAL_GetDEVID                                      build/stm32h7xx_hal.o
HAL_GetFMCMemorySwappingConfig                    build/stm32h7xx_hal.o
HAL_GetHalVersion                                 build/stm32h7xx_hal.o
HAL_GetREVID                                      build/stm32h7xx_hal.o
                                                  build/stm32h7xx_hal_rcc_ex.o
                                                  build/stm32h7xx_hal_rcc.o
HAL_GetTick                                       build/stm32h7xx_hal.o
                                                  build/stm32h7xx_hal_rng.o
                                                  build/stm32h7xx_hal_uart_ex.o
                                                  build/stm32h7xx_hal_uart.o
                                                  build/stm32h7xx_hal_i2c.o
                                                  build/stm32h7xx_hal_pwr_ex.o
                                                  build/stm32h7xx_hal_mdma.o
                                                  build/stm32h7xx_hal_dma.o
                                                  build/stm32h7xx_hal_flash.o
                                                  build/stm32h7xx_hal_rcc_ex.o
                                                  build/stm32h7xx_hal_rcc.o
                                                  build/stm32h7xx_hal_pcd_ex.o
HAL_GetTickFreq                                   build/stm32h7xx_hal.o
HAL_GetTickPrio                                   build/stm32h7xx_hal.o
HAL_GetUIDw0                                      build/stm32h7xx_hal.o
HAL_GetUIDw1                                      build/stm32h7xx_hal.o
HAL_GetUIDw2                                      build/stm32h7xx_hal.o
HAL_HSEM_ActivateNotification                     build/stm32h7xx_hal_hsem.o
HAL_HSEM_DeactivateNotification                   build/stm32h7xx_hal_hsem.o
HAL_HSEM_FastTake                                 build/stm32h7xx_hal_hsem.o
HAL_HSEM_FreeCallback                             build/stm32h7xx_hal_hsem.o
HAL_HSEM_GetClearKey                              build/stm32h7xx_hal_hsem.o
HAL_HSEM_IRQHandler                               build/stm32h7xx_hal_hsem.o
HAL_HSEM_IsSemTaken                               build/stm32h7xx_hal_hsem.o
HAL_HSEM_Release                                  build/stm32h7xx_hal_hsem.o
HAL_HSEM_ReleaseAll                               build/stm32h7xx_hal_hsem.o
HAL_HSEM_SetClearKey                              build/stm32h7xx_hal_hsem.o
HAL_HSEM_Take                                     build/stm32h7xx_hal_hsem.o
HAL_HalfDuplex_EnableReceiver                     build/stm32h7xx_hal_uart.o
HAL_HalfDuplex_EnableTransmitter                  build/stm32h7xx_hal_uart.o
HAL_HalfDuplex_Init                               build/stm32h7xx_hal_uart.o
HAL_I2CEx_ConfigAnalogFilter                      build/stm32h7xx_hal_i2c_ex.o
HAL_I2CEx_ConfigDigitalFilter                     build/stm32h7xx_hal_i2c_ex.o
HAL_I2CEx_DisableFastModePlus                     build/stm32h7xx_hal_i2c_ex.o
HAL_I2CEx_DisableWakeUp                           build/stm32h7xx_hal_i2c_ex.o
HAL_I2CEx_EnableFastModePlus                      build/stm32h7xx_hal_i2c_ex.o
HAL_I2CEx_EnableWakeUp                            build/stm32h7xx_hal_i2c_ex.o
HAL_I2C_AbortCpltCallback                         build/stm32h7xx_hal_i2c.o
HAL_I2C_AddrCallback                              build/stm32h7xx_hal_i2c.o
HAL_I2C_DeInit                                    build/stm32h7xx_hal_i2c.o
HAL_I2C_DisableListen_IT                          build/stm32h7xx_hal_i2c.o
HAL_I2C_ER_IRQHandler                             build/stm32h7xx_hal_i2c.o
HAL_I2C_EV_IRQHandler                             build/stm32h7xx_hal_i2c.o
HAL_I2C_EnableListen_IT                           build/stm32h7xx_hal_i2c.o
HAL_I2C_ErrorCallback                             build/stm32h7xx_hal_i2c.o
HAL_I2C_GetError                                  build/stm32h7xx_hal_i2c.o
HAL_I2C_GetMode                                   build/stm32h7xx_hal_i2c.o
HAL_I2C_GetState                                  build/stm32h7xx_hal_i2c.o
HAL_I2C_Init                                      build/stm32h7xx_hal_i2c.o
HAL_I2C_IsDeviceReady                             build/stm32h7xx_hal_i2c.o
HAL_I2C_ListenCpltCallback                        build/stm32h7xx_hal_i2c.o
HAL_I2C_MasterRxCpltCallback                      build/stm32h7xx_hal_i2c.o
HAL_I2C_MasterTxCpltCallback                      build/stm32h7xx_hal_i2c.o
HAL_I2C_Master_Abort_IT                           build/stm32h7xx_hal_i2c.o
HAL_I2C_Master_Receive                            build/stm32h7xx_hal_i2c.o
HAL_I2C_Master_Receive_DMA                        build/stm32h7xx_hal_i2c.o
HAL_I2C_Master_Receive_IT                         build/stm32h7xx_hal_i2c.o
HAL_I2C_Master_Seq_Receive_DMA                    build/stm32h7xx_hal_i2c.o
HAL_I2C_Master_Seq_Receive_IT                     build/stm32h7xx_hal_i2c.o
HAL_I2C_Master_Seq_Transmit_DMA                   build/stm32h7xx_hal_i2c.o
HAL_I2C_Master_Seq_Transmit_IT                    build/stm32h7xx_hal_i2c.o
HAL_I2C_Master_Transmit                           build/stm32h7xx_hal_i2c.o
HAL_I2C_Master_Transmit_DMA                       build/stm32h7xx_hal_i2c.o
HAL_I2C_Master_Transmit_IT                        build/stm32h7xx_hal_i2c.o
HAL_I2C_MemRxCpltCallback                         build/stm32h7xx_hal_i2c.o
HAL_I2C_MemTxCpltCallback                         build/stm32h7xx_hal_i2c.o
HAL_I2C_Mem_Read                                  build/stm32h7xx_hal_i2c.o
HAL_I2C_Mem_Read_DMA                              build/stm32h7xx_hal_i2c.o
HAL_I2C_Mem_Read_IT                               build/stm32h7xx_hal_i2c.o
HAL_I2C_Mem_Write                                 build/stm32h7xx_hal_i2c.o
HAL_I2C_Mem_Write_DMA                             build/stm32h7xx_hal_i2c.o
HAL_I2C_Mem_Write_IT                              build/stm32h7xx_hal_i2c.o
HAL_I2C_MspDeInit                                 build/stm32h7xx_hal_i2c.o
HAL_I2C_MspInit                                   build/stm32h7xx_hal_i2c.o
HAL_I2C_SlaveRxCpltCallback                       build/stm32h7xx_hal_i2c.o
HAL_I2C_SlaveTxCpltCallback                       build/stm32h7xx_hal_i2c.o
HAL_I2C_Slave_Receive                             build/stm32h7xx_hal_i2c.o
HAL_I2C_Slave_Receive_DMA                         build/stm32h7xx_hal_i2c.o
HAL_I2C_Slave_Receive_IT                          build/stm32h7xx_hal_i2c.o
HAL_I2C_Slave_Seq_Receive_DMA                     build/stm32h7xx_hal_i2c.o
HAL_I2C_Slave_Seq_Receive_IT                      build/stm32h7xx_hal_i2c.o
HAL_I2C_Slave_Seq_Transmit_DMA                    build/stm32h7xx_hal_i2c.o
HAL_I2C_Slave_Seq_Transmit_IT                     build/stm32h7xx_hal_i2c.o
HAL_I2C_Slave_Transmit                            build/stm32h7xx_hal_i2c.o
HAL_I2C_Slave_Transmit_DMA                        build/stm32h7xx_hal_i2c.o
HAL_I2C_Slave_Transmit_IT                         build/stm32h7xx_hal_i2c.o
HAL_IncTick                                       build/stm32h7xx_hal.o
                                                  build/stm32h7xx_it.o
HAL_Init                                          build/stm32h7xx_hal.o
                                                  build/main.o
HAL_InitTick                                      build/stm32h7xx_hal.o
                                                  build/stm32h7xx_hal_rcc.o
HAL_LIN_Init                                      build/stm32h7xx_hal_uart.o
HAL_LIN_SendBreak                                 build/stm32h7xx_hal_uart.o
HAL_MDMA_Abort                                    build/stm32h7xx_hal_mdma.o
HAL_MDMA_Abort_IT                                 build/stm32h7xx_hal_mdma.o
HAL_MDMA_ConfigPostRequestMask                    build/stm32h7xx_hal_mdma.o
HAL_MDMA_DeInit                                   build/stm32h7xx_hal_mdma.o
HAL_MDMA_GenerateSWRequest                        build/stm32h7xx_hal_mdma.o
HAL_MDMA_GetError                                 build/stm32h7xx_hal_mdma.o
HAL_MDMA_GetState                                 build/stm32h7xx_hal_mdma.o
HAL_MDMA_IRQHandler                               build/stm32h7xx_hal_mdma.o
HAL_MDMA_Init                                     build/stm32h7xx_hal_mdma.o
HAL_MDMA_LinkedList_AddNode                       build/stm32h7xx_hal_mdma.o
HAL_MDMA_LinkedList_CreateNode                    build/stm32h7xx_hal_mdma.o
HAL_MDMA_LinkedList_DisableCircularMode           build/stm32h7xx_hal_mdma.o
HAL_MDMA_LinkedList_EnableCircularMode            build/stm32h7xx_hal_mdma.o
HAL_MDMA_LinkedList_RemoveNode                    build/stm32h7xx_hal_mdma.o
HAL_MDMA_PollForTransfer                          build/stm32h7xx_hal_mdma.o
HAL_MDMA_RegisterCallback                         build/stm32h7xx_hal_mdma.o
HAL_MDMA_Start                                    build/stm32h7xx_hal_mdma.o
HAL_MDMA_Start_IT                                 build/stm32h7xx_hal_mdma.o
HAL_MDMA_UnRegisterCallback                       build/stm32h7xx_hal_mdma.o
HAL_MPU_ConfigRegion                              build/stm32h7xx_hal_cortex.o
HAL_MPU_Disable                                   build/stm32h7xx_hal_cortex.o
HAL_MPU_Enable                                    build/stm32h7xx_hal_cortex.o
HAL_MspDeInit                                     build/stm32h7xx_hal.o
HAL_MspInit                                       build/stm32h7xx_hal_msp.o
HAL_MultiProcessorEx_AddressLength_Set            build/stm32h7xx_hal_uart_ex.o
HAL_MultiProcessor_DisableMuteMode                build/stm32h7xx_hal_uart.o
HAL_MultiProcessor_EnableMuteMode                 build/stm32h7xx_hal_uart.o
HAL_MultiProcessor_EnterMuteMode                  build/stm32h7xx_hal_uart.o
HAL_MultiProcessor_Init                           build/stm32h7xx_hal_uart.o
HAL_NVIC_ClearPendingIRQ                          build/stm32h7xx_hal_cortex.o
HAL_NVIC_DisableIRQ                               build/stm32h7xx_hal_cortex.o
                                                  build/dcmi.o
                                                  build/usbd_conf.o
                                                  build/usart.o
HAL_NVIC_EnableIRQ                                build/stm32h7xx_hal_cortex.o
                                                  build/dcmi.o
                                                  build/dma.o
                                                  build/usbd_conf.o
                                                  build/usart.o
HAL_NVIC_GetActive                                build/stm32h7xx_hal_cortex.o
HAL_NVIC_GetPendingIRQ                            build/stm32h7xx_hal_cortex.o
HAL_NVIC_GetPriority                              build/stm32h7xx_hal_cortex.o
HAL_NVIC_GetPriorityGrouping                      build/stm32h7xx_hal_cortex.o
HAL_NVIC_SetPendingIRQ                            build/stm32h7xx_hal_cortex.o
HAL_NVIC_SetPriority                              build/stm32h7xx_hal_cortex.o
                                                  build/dcmi.o
                                                  build/dma.o
                                                  build/stm32h7xx_hal.o
                                                  build/usbd_conf.o
                                                  build/usart.o
HAL_NVIC_SetPriorityGrouping                      build/stm32h7xx_hal_cortex.o
                                                  build/stm32h7xx_hal.o
HAL_NVIC_SystemReset                              build/stm32h7xx_hal_cortex.o
HAL_PCDEx_ActivateBCD                             build/stm32h7xx_hal_pcd_ex.o
HAL_PCDEx_ActivateLPM                             build/stm32h7xx_hal_pcd_ex.o
                                                  build/stm32h7xx_hal_pcd.o
HAL_PCDEx_BCD_Callback                            build/stm32h7xx_hal_pcd_ex.o
HAL_PCDEx_BCD_VBUSDetect                          build/stm32h7xx_hal_pcd_ex.o
HAL_PCDEx_DeActivateBCD                           build/stm32h7xx_hal_pcd_ex.o
HAL_PCDEx_DeActivateLPM                           build/stm32h7xx_hal_pcd_ex.o
HAL_PCDEx_LPM_Callback                            build/stm32h7xx_hal_pcd_ex.o
                                                  build/stm32h7xx_hal_pcd.o
HAL_PCDEx_SetRxFiFo                               build/stm32h7xx_hal_pcd_ex.o
                                                  build/usbd_conf.o
HAL_PCDEx_SetTxFiFo                               build/stm32h7xx_hal_pcd_ex.o
                                                  build/usbd_conf.o
HAL_PCD_ActivateRemoteWakeup                      build/stm32h7xx_hal_pcd.o
HAL_PCD_ConnectCallback                           build/usbd_conf.o
HAL_PCD_DataInStageCallback                       build/usbd_conf.o
HAL_PCD_DataOutStageCallback                      build/usbd_conf.o
HAL_PCD_DeActivateRemoteWakeup                    build/stm32h7xx_hal_pcd.o
HAL_PCD_DeInit                                    build/stm32h7xx_hal_pcd.o
                                                  build/usbd_conf.o
HAL_PCD_DevConnect                                build/stm32h7xx_hal_pcd.o
HAL_PCD_DevDisconnect                             build/stm32h7xx_hal_pcd.o
HAL_PCD_DisconnectCallback                        build/usbd_conf.o
HAL_PCD_EP_Abort                                  build/stm32h7xx_hal_pcd.o
HAL_PCD_EP_Close                                  build/stm32h7xx_hal_pcd.o
                                                  build/usbd_conf.o
HAL_PCD_EP_ClrStall                               build/stm32h7xx_hal_pcd.o
                                                  build/usbd_conf.o
HAL_PCD_EP_Flush                                  build/stm32h7xx_hal_pcd.o
                                                  build/usbd_conf.o
HAL_PCD_EP_GetRxCount                             build/stm32h7xx_hal_pcd.o
                                                  build/usbd_conf.o
HAL_PCD_EP_Open                                   build/stm32h7xx_hal_pcd.o
                                                  build/usbd_conf.o
HAL_PCD_EP_Receive                                build/stm32h7xx_hal_pcd.o
                                                  build/usbd_conf.o
HAL_PCD_EP_SetStall                               build/stm32h7xx_hal_pcd.o
                                                  build/usbd_conf.o
HAL_PCD_EP_Transmit                               build/stm32h7xx_hal_pcd.o
                                                  build/usbd_conf.o
HAL_PCD_GetState                                  build/stm32h7xx_hal_pcd.o
HAL_PCD_IRQHandler                                build/stm32h7xx_hal_pcd.o
                                                  build/stm32h7xx_it.o
HAL_PCD_ISOINIncompleteCallback                   build/usbd_conf.o
HAL_PCD_ISOOUTIncompleteCallback                  build/usbd_conf.o
HAL_PCD_Init                                      build/stm32h7xx_hal_pcd.o
                                                  build/usbd_conf.o
HAL_PCD_MspDeInit                                 build/usbd_conf.o
HAL_PCD_MspInit                                   build/usbd_conf.o
HAL_PCD_ResetCallback                             build/usbd_conf.o
HAL_PCD_ResumeCallback                            build/usbd_conf.o
HAL_PCD_SOFCallback                               build/usbd_conf.o
HAL_PCD_SetAddress                                build/stm32h7xx_hal_pcd.o
                                                  build/usbd_conf.o
HAL_PCD_SetTestMode                               build/stm32h7xx_hal_pcd.o
HAL_PCD_SetupStageCallback                        build/usbd_conf.o
HAL_PCD_Start                                     build/stm32h7xx_hal_pcd.o
                                                  build/usbd_conf.o
HAL_PCD_Stop                                      build/stm32h7xx_hal_pcd.o
                                                  build/usbd_conf.o
HAL_PCD_SuspendCallback                           build/usbd_conf.o
HAL_PWREx_AVDCallback                             build/stm32h7xx_hal_pwr_ex.o
HAL_PWREx_ClearPendingEvent                       build/stm32h7xx_hal_pwr_ex.o
HAL_PWREx_ClearWakeupFlag                         build/stm32h7xx_hal_pwr_ex.o
HAL_PWREx_ConfigAVD                               build/stm32h7xx_hal_pwr_ex.o
HAL_PWREx_ConfigD3Domain                          build/stm32h7xx_hal_pwr_ex.o
HAL_PWREx_ConfigSupply                            build/stm32h7xx_hal_pwr_ex.o
                                                  build/main.o
HAL_PWREx_ControlStopModeVoltageScaling           build/stm32h7xx_hal_pwr_ex.o
HAL_PWREx_ControlVoltageScaling                   build/stm32h7xx_hal_pwr_ex.o
HAL_PWREx_DisableAVD                              build/stm32h7xx_hal_pwr_ex.o
HAL_PWREx_DisableBatteryCharging                  build/stm32h7xx_hal_pwr_ex.o
HAL_PWREx_DisableBkUpReg                          build/stm32h7xx_hal_pwr_ex.o
HAL_PWREx_DisableFlashPowerDown                   build/stm32h7xx_hal_pwr_ex.o
HAL_PWREx_DisableMonitoring                       build/stm32h7xx_hal_pwr_ex.o
HAL_PWREx_DisableUSBReg                           build/stm32h7xx_hal_pwr_ex.o
HAL_PWREx_DisableUSBVoltageDetector               build/stm32h7xx_hal_pwr_ex.o
HAL_PWREx_DisableWakeUpPin                        build/stm32h7xx_hal_pwr_ex.o
HAL_PWREx_EnableAVD                               build/stm32h7xx_hal_pwr_ex.o
HAL_PWREx_EnableBatteryCharging                   build/stm32h7xx_hal_pwr_ex.o
HAL_PWREx_EnableBkUpReg                           build/stm32h7xx_hal_pwr_ex.o
HAL_PWREx_EnableFlashPowerDown                    build/stm32h7xx_hal_pwr_ex.o
HAL_PWREx_EnableMonitoring                        build/stm32h7xx_hal_pwr_ex.o
HAL_PWREx_EnableUSBReg                            build/stm32h7xx_hal_pwr_ex.o
HAL_PWREx_EnableUSBVoltageDetector                build/stm32h7xx_hal_pwr_ex.o
                                                  build/usbd_conf.o
                                                  build/usb_device.o
HAL_PWREx_EnableWakeUpPin                         build/stm32h7xx_hal_pwr_ex.o
HAL_PWREx_EnterSTANDBYMode                        build/stm32h7xx_hal_pwr_ex.o
HAL_PWREx_EnterSTOPMode                           build/stm32h7xx_hal_pwr_ex.o
HAL_PWREx_GetStopModeVoltageRange                 build/stm32h7xx_hal_pwr_ex.o
HAL_PWREx_GetSupplyConfig                         build/stm32h7xx_hal_pwr_ex.o
HAL_PWREx_GetTemperatureLevel                     build/stm32h7xx_hal_pwr_ex.o
HAL_PWREx_GetVBATLevel                            build/stm32h7xx_hal_pwr_ex.o
HAL_PWREx_GetVoltageRange                         build/stm32h7xx_hal_pwr_ex.o
HAL_PWREx_GetWakeupFlag                           build/stm32h7xx_hal_pwr_ex.o
HAL_PWREx_PVD_AVD_IRQHandler                      build/stm32h7xx_hal_pwr_ex.o
HAL_PWREx_WAKEUP_PIN_IRQHandler                   build/stm32h7xx_hal_pwr_ex.o
HAL_PWREx_WKUP1_Callback                          build/stm32h7xx_hal_pwr_ex.o
HAL_PWREx_WKUP2_Callback                          build/stm32h7xx_hal_pwr_ex.o
HAL_PWREx_WKUP3_Callback                          build/stm32h7xx_hal_pwr_ex.o
HAL_PWREx_WKUP4_Callback                          build/stm32h7xx_hal_pwr_ex.o
HAL_PWREx_WKUP5_Callback                          build/stm32h7xx_hal_pwr_ex.o
HAL_PWREx_WKUP6_Callback                          build/stm32h7xx_hal_pwr_ex.o
HAL_PWR_ConfigPVD                                 build/stm32h7xx_hal_pwr.o
HAL_PWR_DeInit                                    build/stm32h7xx_hal_pwr.o
HAL_PWR_DisableBkUpAccess                         build/stm32h7xx_hal_pwr.o
HAL_PWR_DisablePVD                                build/stm32h7xx_hal_pwr.o
HAL_PWR_DisableSEVOnPend                          build/stm32h7xx_hal_pwr.o
HAL_PWR_DisableSleepOnExit                        build/stm32h7xx_hal_pwr.o
HAL_PWR_DisableWakeUpPin                          build/stm32h7xx_hal_pwr.o
HAL_PWR_EnableBkUpAccess                          build/stm32h7xx_hal_pwr.o
HAL_PWR_EnablePVD                                 build/stm32h7xx_hal_pwr.o
HAL_PWR_EnableSEVOnPend                           build/stm32h7xx_hal_pwr.o
HAL_PWR_EnableSleepOnExit                         build/stm32h7xx_hal_pwr.o
HAL_PWR_EnableWakeUpPin                           build/stm32h7xx_hal_pwr.o
HAL_PWR_EnterSLEEPMode                            build/stm32h7xx_hal_pwr.o
HAL_PWR_EnterSTANDBYMode                          build/stm32h7xx_hal_pwr.o
HAL_PWR_EnterSTOPMode                             build/stm32h7xx_hal_pwr.o
HAL_PWR_PVDCallback                               build/stm32h7xx_hal_pwr.o
                                                  build/stm32h7xx_hal_pwr_ex.o
HAL_PWR_PVD_IRQHandler                            build/stm32h7xx_hal_pwr.o
HAL_RCCEx_CRSConfig                               build/stm32h7xx_hal_rcc_ex.o
HAL_RCCEx_CRSGetSynchronizationInfo               build/stm32h7xx_hal_rcc_ex.o
HAL_RCCEx_CRSSoftwareSynchronizationGenerate      build/stm32h7xx_hal_rcc_ex.o
HAL_RCCEx_CRSWaitSynchronization                  build/stm32h7xx_hal_rcc_ex.o
HAL_RCCEx_CRS_ErrorCallback                       build/stm32h7xx_hal_rcc_ex.o
HAL_RCCEx_CRS_ExpectedSyncCallback                build/stm32h7xx_hal_rcc_ex.o
HAL_RCCEx_CRS_IRQHandler                          build/stm32h7xx_hal_rcc_ex.o
HAL_RCCEx_CRS_SyncOkCallback                      build/stm32h7xx_hal_rcc_ex.o
HAL_RCCEx_CRS_SyncWarnCallback                    build/stm32h7xx_hal_rcc_ex.o
HAL_RCCEx_DisableLSECSS                           build/stm32h7xx_hal_rcc_ex.o
HAL_RCCEx_EnableLSECSS                            build/stm32h7xx_hal_rcc_ex.o
HAL_RCCEx_EnableLSECSS_IT                         build/stm32h7xx_hal_rcc_ex.o
HAL_RCCEx_GetD1PCLK1Freq                          build/stm32h7xx_hal_rcc_ex.o
HAL_RCCEx_GetD1SysClockFreq                       build/stm32h7xx_hal_rcc_ex.o
HAL_RCCEx_GetD3PCLK1Freq                          build/stm32h7xx_hal_rcc_ex.o
                                                  build/stm32h7xx_hal_uart.o
HAL_RCCEx_GetPLL1ClockFreq                        build/stm32h7xx_hal_rcc_ex.o
HAL_RCCEx_GetPLL2ClockFreq                        build/stm32h7xx_hal_rcc_ex.o
                                                  build/stm32h7xx_hal_uart.o
HAL_RCCEx_GetPLL3ClockFreq                        build/stm32h7xx_hal_rcc_ex.o
                                                  build/stm32h7xx_hal_uart.o
HAL_RCCEx_GetPeriphCLKConfig                      build/stm32h7xx_hal_rcc_ex.o
HAL_RCCEx_GetPeriphCLKFreq                        build/stm32h7xx_hal_rcc_ex.o
HAL_RCCEx_KerWakeUpStopCLKConfig                  build/stm32h7xx_hal_rcc_ex.o
HAL_RCCEx_LSECSS_Callback                         build/stm32h7xx_hal_rcc_ex.o
HAL_RCCEx_LSECSS_IRQHandler                       build/stm32h7xx_hal_rcc_ex.o
HAL_RCCEx_PeriphCLKConfig                         build/stm32h7xx_hal_rcc_ex.o
                                                  build/rng.o
                                                  build/usbd_conf.o
                                                  build/usart.o
HAL_RCCEx_WWDGxSysResetConfig                     build/stm32h7xx_hal_rcc_ex.o
HAL_RCCEx_WakeUpStopCLKConfig                     build/stm32h7xx_hal_rcc_ex.o
HAL_RCC_CSSCallback                               build/stm32h7xx_hal_rcc.o
HAL_RCC_ClockConfig                               build/stm32h7xx_hal_rcc.o
                                                  build/main.o
HAL_RCC_DeInit                                    build/stm32h7xx_hal_rcc.o
HAL_RCC_DisableCSS                                build/stm32h7xx_hal_rcc.o
HAL_RCC_EnableCSS                                 build/stm32h7xx_hal_rcc.o
HAL_RCC_GetClockConfig                            build/stm32h7xx_hal_rcc.o
HAL_RCC_GetHCLKFreq                               build/stm32h7xx_hal_rcc.o
                                                  build/stm32h7xx_hal_rcc_ex.o
                                                  build/stm32h7xx_hal_pcd.o
HAL_RCC_GetOscConfig                              build/stm32h7xx_hal_rcc.o
HAL_RCC_GetPCLK1Freq                              build/stm32h7xx_hal_rcc.o
                                                  build/stm32h7xx_hal_uart.o
HAL_RCC_GetPCLK2Freq                              build/stm32h7xx_hal_rcc.o
                                                  build/stm32h7xx_hal_uart.o
HAL_RCC_GetSysClockFreq                           build/stm32h7xx_hal_rcc.o
                                                  build/stm32h7xx_hal.o
                                                  build/stm32h7xx_hal_rcc_ex.o
HAL_RCC_MCOConfig                                 build/stm32h7xx_hal_rcc.o
                                                  build/main.o
HAL_RCC_NMI_IRQHandler                            build/stm32h7xx_hal_rcc.o
HAL_RCC_OscConfig                                 build/stm32h7xx_hal_rcc.o
                                                  build/main.o
HAL_RNG_DeInit                                    build/stm32h7xx_hal_rng.o
HAL_RNG_ErrorCallback                             build/stm32h7xx_hal_rng.o
HAL_RNG_GenerateRandomNumber                      build/stm32h7xx_hal_rng.o
HAL_RNG_GenerateRandomNumber_IT                   build/stm32h7xx_hal_rng.o
HAL_RNG_GetError                                  build/stm32h7xx_hal_rng.o
HAL_RNG_GetState                                  build/stm32h7xx_hal_rng.o
HAL_RNG_IRQHandler                                build/stm32h7xx_hal_rng.o
HAL_RNG_Init                                      build/stm32h7xx_hal_rng.o
                                                  build/rng.o
HAL_RNG_MspDeInit                                 build/rng.o
HAL_RNG_MspInit                                   build/rng.o
HAL_RNG_ReadLastRandomNumber                      build/stm32h7xx_hal_rng.o
HAL_RNG_ReadyDataCallback                         build/stm32h7xx_hal_rng.o
HAL_RS485Ex_Init                                  build/stm32h7xx_hal_uart_ex.o
HAL_ResumeTick                                    build/stm32h7xx_hal.o
HAL_SYSCFG_AnalogSwitchConfig                     build/stm32h7xx_hal.o
HAL_SYSCFG_CM7BootAddConfig                       build/stm32h7xx_hal.o
HAL_SYSCFG_CompensationCodeConfig                 build/stm32h7xx_hal.o
HAL_SYSCFG_CompensationCodeSelect                 build/stm32h7xx_hal.o
HAL_SYSCFG_DisableBOOST                           build/stm32h7xx_hal.o
HAL_SYSCFG_DisableIOSpeedOptimize                 build/stm32h7xx_hal.o
HAL_SYSCFG_DisableVREFBUF                         build/stm32h7xx_hal.o
HAL_SYSCFG_ETHInterfaceSelect                     build/stm32h7xx_hal.o
HAL_SYSCFG_EnableBOOST                            build/stm32h7xx_hal.o
HAL_SYSCFG_EnableIOSpeedOptimize                  build/stm32h7xx_hal.o
HAL_SYSCFG_EnableVREFBUF                          build/stm32h7xx_hal.o
HAL_SYSCFG_VREFBUF_HighImpedanceConfig            build/stm32h7xx_hal.o
HAL_SYSCFG_VREFBUF_TrimmingConfig                 build/stm32h7xx_hal.o
HAL_SYSCFG_VREFBUF_VoltageScalingConfig           build/stm32h7xx_hal.o
HAL_SYSTICK_CLKSourceConfig                       build/stm32h7xx_hal_cortex.o
HAL_SYSTICK_Callback                              build/stm32h7xx_hal_cortex.o
HAL_SYSTICK_Config                                build/stm32h7xx_hal_cortex.o
                                                  build/stm32h7xx_hal.o
HAL_SYSTICK_IRQHandler                            build/stm32h7xx_hal_cortex.o
HAL_SetFMCMemorySwappingConfig                    build/stm32h7xx_hal.o
HAL_SetTickFreq                                   build/stm32h7xx_hal.o
HAL_SuspendTick                                   build/stm32h7xx_hal.o
HAL_UARTEx_DisableFifoMode                        build/stm32h7xx_hal_uart_ex.o
                                                  build/usart.o
HAL_UARTEx_DisableStopMode                        build/stm32h7xx_hal_uart_ex.o
HAL_UARTEx_EnableFifoMode                         build/stm32h7xx_hal_uart_ex.o
HAL_UARTEx_EnableStopMode                         build/stm32h7xx_hal_uart_ex.o
HAL_UARTEx_ReceiveToIdle                          build/stm32h7xx_hal_uart_ex.o
HAL_UARTEx_ReceiveToIdle_DMA                      build/stm32h7xx_hal_uart_ex.o
HAL_UARTEx_ReceiveToIdle_IT                       build/stm32h7xx_hal_uart_ex.o
HAL_UARTEx_RxEventCallback                        build/stm32h7xx_hal_uart.o
HAL_UARTEx_RxFifoFullCallback                     build/stm32h7xx_hal_uart_ex.o
                                                  build/stm32h7xx_hal_uart.o
HAL_UARTEx_SetRxFifoThreshold                     build/stm32h7xx_hal_uart_ex.o
                                                  build/usart.o
HAL_UARTEx_SetTxFifoThreshold                     build/stm32h7xx_hal_uart_ex.o
                                                  build/usart.o
HAL_UARTEx_StopModeWakeUpSourceConfig             build/stm32h7xx_hal_uart_ex.o
HAL_UARTEx_TxFifoEmptyCallback                    build/stm32h7xx_hal_uart_ex.o
                                                  build/stm32h7xx_hal_uart.o
HAL_UARTEx_WakeupCallback                         build/stm32h7xx_hal_uart_ex.o
                                                  build/stm32h7xx_hal_uart.o
HAL_UART_Abort                                    build/stm32h7xx_hal_uart.o
HAL_UART_AbortCpltCallback                        build/stm32h7xx_hal_uart.o
HAL_UART_AbortReceive                             build/stm32h7xx_hal_uart.o
HAL_UART_AbortReceiveCpltCallback                 build/stm32h7xx_hal_uart.o
HAL_UART_AbortReceive_IT                          build/stm32h7xx_hal_uart.o
HAL_UART_AbortTransmit                            build/stm32h7xx_hal_uart.o
HAL_UART_AbortTransmitCpltCallback                build/stm32h7xx_hal_uart.o
HAL_UART_AbortTransmit_IT                         build/stm32h7xx_hal_uart.o
HAL_UART_Abort_IT                                 build/stm32h7xx_hal_uart.o
HAL_UART_DMAPause                                 build/stm32h7xx_hal_uart.o
HAL_UART_DMAResume                                build/stm32h7xx_hal_uart.o
HAL_UART_DMAStop                                  build/stm32h7xx_hal_uart.o
HAL_UART_DeInit                                   build/stm32h7xx_hal_uart.o
HAL_UART_DisableReceiverTimeout                   build/stm32h7xx_hal_uart.o
HAL_UART_EnableReceiverTimeout                    build/stm32h7xx_hal_uart.o
HAL_UART_ErrorCallback                            build/stm32h7xx_hal_uart.o
HAL_UART_GetError                                 build/stm32h7xx_hal_uart.o
HAL_UART_GetState                                 build/stm32h7xx_hal_uart.o
HAL_UART_IRQHandler                               build/stm32h7xx_hal_uart.o
                                                  build/stm32h7xx_it.o
HAL_UART_Init                                     build/stm32h7xx_hal_uart.o
                                                  build/usart.o
HAL_UART_MspDeInit                                build/usart.o
HAL_UART_MspInit                                  build/usart.o
                                                  build/stm32h7xx_hal_uart_ex.o
HAL_UART_Receive                                  build/stm32h7xx_hal_uart.o
HAL_UART_Receive_DMA                              build/stm32h7xx_hal_uart.o
                                                  build/main.o
HAL_UART_Receive_IT                               build/stm32h7xx_hal_uart.o
HAL_UART_ReceiverTimeout_Config                   build/stm32h7xx_hal_uart.o
HAL_UART_RxCpltCallback                           build/main.o
HAL_UART_RxHalfCpltCallback                       build/main.o
HAL_UART_Transmit                                 build/stm32h7xx_hal_uart.o
HAL_UART_Transmit_DMA                             build/stm32h7xx_hal_uart.o
                                                  build/retarget.o
HAL_UART_Transmit_IT                              build/stm32h7xx_hal_uart.o
HAL_UART_TxCpltCallback                           build/stm32h7xx_hal_uart.o
HAL_UART_TxHalfCpltCallback                       build/stm32h7xx_hal_uart.o
HRTIM1_FLT_IRQHandler                             build/startup_stm32h743xx.o
HRTIM1_Master_IRQHandler                          build/startup_stm32h743xx.o
HRTIM1_TIMA_IRQHandler                            build/startup_stm32h743xx.o
HRTIM1_TIMB_IRQHandler                            build/startup_stm32h743xx.o
HRTIM1_TIMC_IRQHandler                            build/startup_stm32h743xx.o
HRTIM1_TIMD_IRQHandler                            build/startup_stm32h743xx.o
HRTIM1_TIME_IRQHandler                            build/startup_stm32h743xx.o
HSEM1_IRQHandler                                  build/startup_stm32h743xx.o
HS_Desc                                           build/usbd_desc.o
                                                  build/usb_device.o
HardFault_Handler                                 build/stm32h7xx_it.o
I2C1_ER_IRQHandler                                build/startup_stm32h743xx.o
I2C1_EV_IRQHandler                                build/startup_stm32h743xx.o
I2C2_ER_IRQHandler                                build/startup_stm32h743xx.o
I2C2_EV_IRQHandler                                build/startup_stm32h743xx.o
I2C3_ER_IRQHandler                                build/startup_stm32h743xx.o
I2C3_EV_IRQHandler                                build/startup_stm32h743xx.o
I2C4_ER_IRQHandler                                build/startup_stm32h743xx.o
I2C4_EV_IRQHandler                                build/startup_stm32h743xx.o
JPEG_IRQHandler                                   build/startup_stm32h743xx.o
LPTIM1_IRQHandler                                 build/startup_stm32h743xx.o
LPTIM2_IRQHandler                                 build/startup_stm32h743xx.o
LPTIM3_IRQHandler                                 build/startup_stm32h743xx.o
LPTIM4_IRQHandler                                 build/startup_stm32h743xx.o
LPTIM5_IRQHandler                                 build/startup_stm32h743xx.o
LPUART1_IRQHandler                                build/startup_stm32h743xx.o
LTDC_ER_IRQHandler                                build/startup_stm32h743xx.o
LTDC_IRQHandler                                   build/startup_stm32h743xx.o
MDIOS_IRQHandler                                  build/startup_stm32h743xx.o
MDIOS_WKUP_IRQHandler                             build/startup_stm32h743xx.o
MDMA_IRQHandler                                   build/startup_stm32h743xx.o
MX_DCMI_Init                                      build/dcmi.o
                                                  build/main.o
MX_DMA_Init                                       build/dma.o
                                                  build/main.o
MX_GPIO_Init                                      build/gpio.o
                                                  build/main.o
MX_RNG_Init                                       build/rng.o
                                                  build/main.o
MX_USART3_UART_Init                               build/usart.o
                                                  build/main.o
MX_USB_DEVICE_Init                                build/usb_device.o
                                                  build/main.o
MemManage_Handler                                 build/stm32h7xx_it.o
NMI_Handler                                       build/stm32h7xx_it.o
OTG_FS_EP1_IN_IRQHandler                          build/startup_stm32h743xx.o
OTG_FS_EP1_OUT_IRQHandler                         build/startup_stm32h743xx.o
OTG_FS_IRQHandler                                 build/stm32h7xx_it.o
OTG_FS_WKUP_IRQHandler                            build/startup_stm32h743xx.o
OTG_HS_EP1_IN_IRQHandler                          build/startup_stm32h743xx.o
OTG_HS_EP1_OUT_IRQHandler                         build/startup_stm32h743xx.o
OTG_HS_IRQHandler                                 build/stm32h7xx_it.o
OTG_HS_WKUP_IRQHandler                            build/startup_stm32h743xx.o
PVD_AVD_IRQHandler                                build/startup_stm32h743xx.o
PendSV_Handler                                    build/stm32h7xx_it.o
QUADSPI_IRQHandler                                build/startup_stm32h743xx.o
RCC_IRQHandler                                    build/startup_stm32h743xx.o
RNG_IRQHandler                                    build/startup_stm32h743xx.o
RTC_Alarm_IRQHandler                              build/startup_stm32h743xx.o
RTC_WKUP_IRQHandler                               build/startup_stm32h743xx.o
Reset_Handler                                     build/startup_stm32h743xx.o
SAI1_IRQHandler                                   build/startup_stm32h743xx.o
SAI2_IRQHandler                                   build/startup_stm32h743xx.o
SAI3_IRQHandler                                   build/startup_stm32h743xx.o
SAI4_IRQHandler                                   build/startup_stm32h743xx.o
SDMMC1_IRQHandler                                 build/startup_stm32h743xx.o
SDMMC2_IRQHandler                                 build/startup_stm32h743xx.o
SPDIF_RX_IRQHandler                               build/startup_stm32h743xx.o
SPI1_IRQHandler                                   build/startup_stm32h743xx.o
SPI2_IRQHandler                                   build/startup_stm32h743xx.o
SPI3_IRQHandler                                   build/startup_stm32h743xx.o
SPI4_IRQHandler                                   build/startup_stm32h743xx.o
SPI5_IRQHandler                                   build/startup_stm32h743xx.o
SPI6_IRQHandler                                   build/startup_stm32h743xx.o
SVC_Handler                                       build/stm32h7xx_it.o
SWPMI1_IRQHandler                                 build/startup_stm32h743xx.o
SysTick_Handler                                   build/stm32h7xx_it.o
SystemClock_Config                                build/main.o
SystemCoreClock                                   build/system_stm32h7xx.o
                                                  build/stm32h7xx_hal_dcmi.o
                                                  build/stm32h7xx_hal.o
                                                  build/stm32h7xx_hal_mdma.o
                                                  build/stm32h7xx_hal_dma.o
                                                  build/stm32h7xx_hal_rcc_ex.o
                                                  build/stm32h7xx_hal_rcc.o
SystemCoreClockUpdate                             build/system_stm32h7xx.o
SystemD2Clock                                     build/system_stm32h7xx.o
                                                  build/stm32h7xx_hal.o
                                                  build/stm32h7xx_hal_rcc_ex.o
                                                  build/stm32h7xx_hal_rcc.o
SystemInit                                        build/system_stm32h7xx.o
                                                  build/startup_stm32h743xx.o
TAMP_STAMP_IRQHandler                             build/startup_stm32h743xx.o
TIM15_IRQHandler                                  build/startup_stm32h743xx.o
TIM16_IRQHandler                                  build/startup_stm32h743xx.o
TIM17_IRQHandler                                  build/startup_stm32h743xx.o
TIM1_BRK_IRQHandler                               build/startup_stm32h743xx.o
TIM1_CC_IRQHandler                                build/startup_stm32h743xx.o
TIM1_TRG_COM_IRQHandler                           build/startup_stm32h743xx.o
TIM1_UP_IRQHandler                                build/startup_stm32h743xx.o
TIM2_IRQHandler                                   build/startup_stm32h743xx.o
TIM3_IRQHandler                                   build/startup_stm32h743xx.o
TIM4_IRQHandler                                   build/startup_stm32h743xx.o
TIM5_IRQHandler                                   build/startup_stm32h743xx.o
TIM6_DAC_IRQHandler                               build/startup_stm32h743xx.o
TIM7_IRQHandler                                   build/startup_stm32h743xx.o
TIM8_BRK_TIM12_IRQHandler                         build/startup_stm32h743xx.o
TIM8_CC_IRQHandler                                build/startup_stm32h743xx.o
TIM8_TRG_COM_TIM14_IRQHandler                     build/startup_stm32h743xx.o
TIM8_UP_TIM13_IRQHandler                          build/startup_stm32h743xx.o
UART4_IRQHandler                                  build/startup_stm32h743xx.o
UART5_IRQHandler                                  build/startup_stm32h743xx.o
UART7_IRQHandler                                  build/startup_stm32h743xx.o
UART8_IRQHandler                                  build/startup_stm32h743xx.o
UARTPrescTable                                    build/stm32h7xx_hal_uart.o
UART_AdvFeatureConfig                             build/stm32h7xx_hal_uart.o
                                                  build/stm32h7xx_hal_uart_ex.o
UART_CheckIdleState                               build/stm32h7xx_hal_uart.o
                                                  build/stm32h7xx_hal_uart_ex.o
UART_SetConfig                                    build/stm32h7xx_hal_uart.o
                                                  build/stm32h7xx_hal_uart_ex.o
UART_Start_Receive_DMA                            build/stm32h7xx_hal_uart.o
                                                  build/stm32h7xx_hal_uart_ex.o
UART_Start_Receive_IT                             build/stm32h7xx_hal_uart.o
                                                  build/stm32h7xx_hal_uart_ex.o
UART_WaitOnFlagUntilTimeout                       build/stm32h7xx_hal_uart.o
                                                  build/stm32h7xx_hal_uart_ex.o
USART1_IRQHandler                                 build/startup_stm32h743xx.o
USART2_IRQHandler                                 build/startup_stm32h743xx.o
USART3_IRQHandler                                 build/stm32h7xx_it.o
USART6_IRQHandler                                 build/startup_stm32h743xx.o
USBD_CDC                                          build/usbd_cdc.o
                                                  build/usb_device.o
USBD_CDC_GetDeviceQualifierDescriptor             build/usbd_cdc.o
USBD_CDC_ReceivePacket                            build/usbd_cdc.o
                                                  build/usbd_cdc_if.o
USBD_CDC_RegisterInterface                        build/usbd_cdc.o
                                                  build/usb_device.o
USBD_CDC_SetRxBuffer                              build/usbd_cdc.o
                                                  build/usbd_cdc_if.o
USBD_CDC_SetTxBuffer                              build/usbd_cdc.o
                                                  build/usbd_cdc_if.o
USBD_CDC_TransmitPacket                           build/usbd_cdc.o
                                                  build/usbd_cdc_if.o
USBD_ClrClassConfig                               build/usbd_core.o
                                                  build/usbd_ctlreq.o
USBD_CtlContinueRx                                build/usbd_ioreq.o
                                                  build/usbd_core.o
USBD_CtlContinueSendData                          build/usbd_ioreq.o
                                                  build/usbd_core.o
USBD_CtlError                                     build/usbd_ctlreq.o
                                                  build/usbd_uvc.o
                                                  build/usbd_cdc.o
USBD_CtlPrepareRx                                 build/usbd_ioreq.o
                                                  build/usbd_uvc.o
                                                  build/usbd_cdc.o
USBD_CtlReceiveStatus                             build/usbd_ioreq.o
                                                  build/usbd_core.o
USBD_CtlSendData                                  build/usbd_ioreq.o
                                                  build/usbd_uvc.o
                                                  build/usbd_cdc.o
                                                  build/usbd_ctlreq.o
USBD_CtlSendStatus                                build/usbd_ioreq.o
                                                  build/usbd_ctlreq.o
                                                  build/usbd_core.o
USBD_DeInit                                       build/usbd_core.o
USBD_FS_ConfigStrDescriptor                       build/usbd_desc.o
USBD_FS_DeviceDesc                                build/usbd_desc.o
USBD_FS_DeviceDescriptor                          build/usbd_desc.o
USBD_FS_InterfaceStrDescriptor                    build/usbd_desc.o
USBD_FS_LangIDStrDescriptor                       build/usbd_desc.o
USBD_FS_ManufacturerStrDescriptor                 build/usbd_desc.o
USBD_FS_ProductStrDescriptor                      build/usbd_desc.o
USBD_FS_SerialStrDescriptor                       build/usbd_desc.o
USBD_GetRxCount                                   build/usbd_ioreq.o
USBD_GetString                                    build/usbd_ctlreq.o
                                                  build/usbd_uvc.o
                                                  build/usbd_desc.o
USBD_Get_USB_Status                               build/usbd_conf.o
USBD_HS_ConfigStrDescriptor                       build/usbd_desc.o
USBD_HS_DeviceDesc                                build/usbd_desc.o
USBD_HS_DeviceDescriptor                          build/usbd_desc.o
USBD_HS_InterfaceStrDescriptor                    build/usbd_desc.o
USBD_HS_LangIDStrDescriptor                       build/usbd_desc.o
USBD_HS_ManufacturerStrDescriptor                 build/usbd_desc.o
USBD_HS_ProductStrDescriptor                      build/usbd_desc.o
USBD_HS_SerialStrDescriptor                       build/usbd_desc.o
USBD_Init                                         build/usbd_core.o
                                                  build/usb_device.o
USBD_Interface_fops_FS                            build/usbd_cdc_if.o
                                                  build/usb_device.o
USBD_Interface_fops_HS                            build/usbd_cdc_if.o
USBD_LL_ClearStallEP                              build/usbd_conf.o
                                                  build/usbd_ctlreq.o
USBD_LL_CloseEP                                   build/usbd_conf.o
                                                  build/usbd_uvc.o
                                                  build/usbd_cdc.o
USBD_LL_DataInStage                               build/usbd_core.o
                                                  build/usbd_conf.o
USBD_LL_DataOutStage                              build/usbd_core.o
                                                  build/usbd_conf.o
USBD_LL_DeInit                                    build/usbd_conf.o
                                                  build/usbd_core.o
USBD_LL_Delay                                     build/usbd_conf.o
USBD_LL_DevConnected                              build/usbd_core.o
                                                  build/usbd_conf.o
USBD_LL_DevDisconnected                           build/usbd_core.o
                                                  build/usbd_conf.o
USBD_LL_FlushEP                                   build/usbd_conf.o
USBD_LL_GetRxDataSize                             build/usbd_conf.o
                                                  build/usbd_cdc.o
                                                  build/usbd_ioreq.o
USBD_LL_Init                                      build/usbd_conf.o
                                                  build/usbd_core.o
USBD_LL_IsStallEP                                 build/usbd_conf.o
                                                  build/usbd_ctlreq.o
USBD_LL_IsoINIncomplete                           build/usbd_core.o
                                                  build/usbd_conf.o
USBD_LL_IsoOUTIncomplete                          build/usbd_core.o
                                                  build/usbd_conf.o
USBD_LL_OpenEP                                    build/usbd_conf.o
                                                  build/usbd_uvc.o
                                                  build/usbd_cdc.o
                                                  build/usbd_core.o
USBD_LL_PrepareReceive                            build/usbd_conf.o
                                                  build/usbd_cdc.o
                                                  build/usbd_ioreq.o
                                                  build/usbd_core.o
USBD_LL_Reset                                     build/usbd_core.o
                                                  build/usbd_conf.o
USBD_LL_Resume                                    build/usbd_core.o
                                                  build/usbd_conf.o
USBD_LL_SOF                                       build/usbd_core.o
                                                  build/usbd_conf.o
USBD_LL_SetSpeed                                  build/usbd_core.o
                                                  build/usbd_conf.o
USBD_LL_SetUSBAddress                             build/usbd_conf.o
                                                  build/usbd_ctlreq.o
USBD_LL_SetupStage                                build/usbd_core.o
                                                  build/usbd_conf.o
USBD_LL_StallEP                                   build/usbd_conf.o
                                                  build/usbd_ctlreq.o
                                                  build/usbd_core.o
USBD_LL_Start                                     build/usbd_conf.o
                                                  build/usbd_core.o
USBD_LL_Stop                                      build/usbd_conf.o
                                                  build/usbd_core.o
USBD_LL_Suspend                                   build/usbd_core.o
                                                  build/usbd_conf.o
USBD_LL_Transmit                                  build/usbd_conf.o
                                                  build/usbd_uvc.o
                                                  build/usbd_cdc.o
                                                  build/usbd_ioreq.o
USBD_LangIDDesc                                   build/usbd_desc.o
USBD_ParseSetupRequest                            build/usbd_ctlreq.o
                                                  build/usbd_core.o
USBD_RegisterClass                                build/usbd_core.o
                                                  build/usb_device.o
USBD_RunTestMode                                  build/usbd_core.o
USBD_SetClassConfig                               build/usbd_core.o
                                                  build/usbd_ctlreq.o
USBD_Start                                        build/usbd_core.o
                                                  build/usb_device.o
USBD_StdDevReq                                    build/usbd_ctlreq.o
                                                  build/usbd_core.o
USBD_StdEPReq                                     build/usbd_ctlreq.o
                                                  build/usbd_core.o
USBD_StdItfReq                                    build/usbd_ctlreq.o
                                                  build/usbd_core.o
USBD_Stop                                         build/usbd_core.o
USBD_StrDesc                                      build/usbd_desc.o
USBD_StringSerial                                 build/usbd_desc.o
USBD_UVC                                          build/usbd_uvc.o
                                                  build/usb_device.o
USBD_UVC_Camera                                   build/usbd_uvc_if.o
                                                  build/usb_device.o
USBD_UVC_CfgFSDesc                                build/usbd_uvc.o
USBD_UVC_DataIn                                   build/usbd_uvc.o
USBD_UVC_DataOut                                  build/usbd_uvc.o
USBD_UVC_DeInit                                   build/usbd_uvc.o
USBD_UVC_EP0_RxReady                              build/usbd_uvc.o
USBD_UVC_GetFSCfgDesc                             build/usbd_uvc.o
USBD_UVC_GetHSCfgDesc                             build/usbd_uvc.o
USBD_UVC_GetUsrStrDescriptor                      build/usbd_uvc.o
USBD_UVC_Init                                     build/usbd_uvc.o
USBD_UVC_RegisterCamera                           build/usbd_uvc.o
                                                  build/usb_device.o
USBD_UVC_SOF                                      build/usbd_uvc.o
USBD_UVC_Setup                                    build/usbd_uvc.o
USBD_UVC_StrDesc                                  build/usbd_uvc.o
USBD_static_free                                  build/usbd_conf.o
                                                  build/usbd_uvc.o
                                                  build/usbd_cdc.o
USBD_static_malloc                                build/usbd_conf.o
                                                  build/usbd_uvc.o
                                                  build/usbd_cdc.o
USB_ActivateDedicatedEndpoint                     build/stm32h7xx_ll_usb.o
USB_ActivateEndpoint                              build/stm32h7xx_ll_usb.o
                                                  build/stm32h7xx_hal_pcd.o
USB_ActivateRemoteWakeup                          build/stm32h7xx_ll_usb.o
                                                  build/stm32h7xx_hal_pcd.o
USB_ActivateSetup                                 build/stm32h7xx_ll_usb.o
                                                  build/stm32h7xx_hal_pcd.o
USB_ClearInterrupts                               build/stm32h7xx_ll_usb.o
USB_CoreInit                                      build/stm32h7xx_ll_usb.o
                                                  build/stm32h7xx_hal_pcd.o
USB_DeActivateRemoteWakeup                        build/stm32h7xx_ll_usb.o
                                                  build/stm32h7xx_hal_pcd.o
USB_DeactivateDedicatedEndpoint                   build/stm32h7xx_ll_usb.o
USB_DeactivateEndpoint                            build/stm32h7xx_ll_usb.o
                                                  build/stm32h7xx_hal_pcd.o
USB_DevConnect                                    build/stm32h7xx_ll_usb.o
                                                  build/stm32h7xx_hal_pcd.o
USB_DevDisconnect                                 build/stm32h7xx_ll_usb.o
                                                  build/stm32h7xx_hal_pcd.o
USB_DevInit                                       build/stm32h7xx_ll_usb.o
                                                  build/stm32h7xx_hal_pcd.o
USB_DisableGlobalInt                              build/stm32h7xx_ll_usb.o
                                                  build/stm32h7xx_hal_pcd.o
USB_DoPing                                        build/stm32h7xx_ll_usb.o
USB_DriveVbus                                     build/stm32h7xx_ll_usb.o
USB_EP0StartXfer                                  build/stm32h7xx_ll_usb.o
                                                  build/stm32h7xx_hal_pcd.o
USB_EP0_OutStart                                  build/stm32h7xx_ll_usb.o
                                                  build/stm32h7xx_hal_pcd.o
USB_EPClearStall                                  build/stm32h7xx_ll_usb.o
                                                  build/stm32h7xx_hal_pcd.o
USB_EPSetStall                                    build/stm32h7xx_ll_usb.o
                                                  build/stm32h7xx_hal_pcd.o
USB_EPStartXfer                                   build/stm32h7xx_ll_usb.o
                                                  build/stm32h7xx_hal_pcd.o
USB_EPStopXfer                                    build/stm32h7xx_ll_usb.o
                                                  build/stm32h7xx_hal_pcd.o
USB_EnableGlobalInt                               build/stm32h7xx_ll_usb.o
                                                  build/stm32h7xx_hal_pcd.o
USB_FlushRxFifo                                   build/stm32h7xx_ll_usb.o
                                                  build/stm32h7xx_hal_pcd.o
USB_FlushTxFifo                                   build/stm32h7xx_ll_usb.o
                                                  build/stm32h7xx_hal_pcd.o
USB_GetCurrentFrame                               build/stm32h7xx_ll_usb.o
USB_GetDevSpeed                                   build/stm32h7xx_ll_usb.o
                                                  build/stm32h7xx_hal_pcd.o
USB_GetHostSpeed                                  build/stm32h7xx_ll_usb.o
USB_GetMode                                       build/stm32h7xx_ll_usb.o
                                                  build/stm32h7xx_hal_pcd.o
USB_HC_Halt                                       build/stm32h7xx_ll_usb.o
USB_HC_Init                                       build/stm32h7xx_ll_usb.o
USB_HC_ReadInterrupt                              build/stm32h7xx_ll_usb.o
USB_HC_StartXfer                                  build/stm32h7xx_ll_usb.o
USB_HostInit                                      build/stm32h7xx_ll_usb.o
USB_InitFSLSPClkSel                               build/stm32h7xx_ll_usb.o
USB_ReadDevAllInEpInterrupt                       build/stm32h7xx_ll_usb.o
                                                  build/stm32h7xx_hal_pcd.o
USB_ReadDevAllOutEpInterrupt                      build/stm32h7xx_ll_usb.o
                                                  build/stm32h7xx_hal_pcd.o
USB_ReadDevInEPInterrupt                          build/stm32h7xx_ll_usb.o
                                                  build/stm32h7xx_hal_pcd.o
USB_ReadDevOutEPInterrupt                         build/stm32h7xx_ll_usb.o
                                                  build/stm32h7xx_hal_pcd.o
USB_ReadInterrupts                                build/stm32h7xx_ll_usb.o
                                                  build/stm32h7xx_hal_pcd.o
USB_ReadPacket                                    build/stm32h7xx_ll_usb.o
                                                  build/stm32h7xx_hal_pcd.o
USB_ResetPort                                     build/stm32h7xx_ll_usb.o
USB_SetCurrentMode                                build/stm32h7xx_ll_usb.o
                                                  build/stm32h7xx_hal_pcd.o
USB_SetDevAddress                                 build/stm32h7xx_ll_usb.o
                                                  build/stm32h7xx_hal_pcd.o
USB_SetDevSpeed                                   build/stm32h7xx_ll_usb.o
USB_SetTurnaroundTime                             build/stm32h7xx_ll_usb.o
                                                  build/stm32h7xx_hal_pcd.o
USB_StopDevice                                    build/stm32h7xx_ll_usb.o
                                                  build/stm32h7xx_hal_pcd.o
USB_StopHost                                      build/stm32h7xx_ll_usb.o
USB_WritePacket                                   build/stm32h7xx_ll_usb.o
                                                  build/stm32h7xx_hal_pcd.o
UVC_Req_GetCurrent                                build/usbd_uvc.o
UVC_Req_SetCurrent                                build/usbd_uvc.o
UsageFault_Handler                                build/stm32h7xx_it.o
UserRxBufferFS                                    build/usbd_cdc_if.o
UserRxBufferHS                                    build/usbd_cdc_if.o
UserTxBufferFS                                    build/usbd_cdc_if.o
UserTxBufferHS                                    build/usbd_cdc_if.o
WAKEUP_PIN_IRQHandler                             build/startup_stm32h743xx.o
WWDG_IRQHandler                                   build/startup_stm32h743xx.o
_Balloc                                           c:/arm_tool/gcc/bin/../lib/gcc/arm-none-eabi/8.2.1/../../../../arm-none-eabi/lib/thumb/v7e-m+dp/hard\libc_nano.a(lib_a-mprec.o)
                                                  c:/arm_tool/gcc/bin/../lib/gcc/arm-none-eabi/8.2.1/../../../../arm-none-eabi/lib/thumb/v7e-m+dp/hard\libc_nano.a(lib_a-dtoa.o)
_Bfree                                            c:/arm_tool/gcc/bin/../lib/gcc/arm-none-eabi/8.2.1/../../../../arm-none-eabi/lib/thumb/v7e-m+dp/hard\libc_nano.a(lib_a-mprec.o)
                                                  c:/arm_tool/gcc/bin/../lib/gcc/arm-none-eabi/8.2.1/../../../../arm-none-eabi/lib/thumb/v7e-m+dp/hard\libc_nano.a(lib_a-dtoa.o)
_ITM_deregisterTMCloneTable                       c:/arm_tool/gcc/bin/../lib/gcc/arm-none-eabi/8.2.1/thumb/v7e-m+dp/hard/crtbegin.o
_ITM_registerTMCloneTable                         c:/arm_tool/gcc/bin/../lib/gcc/arm-none-eabi/8.2.1/thumb/v7e-m+dp/hard/crtbegin.o
_PathLocale                                       c:/arm_tool/gcc/bin/../lib/gcc/arm-none-eabi/8.2.1/../../../../arm-none-eabi/lib/thumb/v7e-m+dp/hard\libc_nano.a(lib_a-locale.o)
__TMC_END__                                       c:/arm_tool/gcc/bin/../lib/gcc/arm-none-eabi/8.2.1/thumb/v7e-m+dp/hard/crtend.o
                                                  c:/arm_tool/gcc/bin/../lib/gcc/arm-none-eabi/8.2.1/thumb/v7e-m+dp/hard/crtbegin.o
__aeabi_idiv0                                     c:/arm_tool/gcc/bin/../lib/gcc/arm-none-eabi/8.2.1/thumb/v7e-m+dp/hard\libgcc.a(_dvmd_tls.o)
__aeabi_ldiv0                                     c:/arm_tool/gcc/bin/../lib/gcc/arm-none-eabi/8.2.1/thumb/v7e-m+dp/hard\libgcc.a(_dvmd_tls.o)
                                                  c:/arm_tool/gcc/bin/../lib/gcc/arm-none-eabi/8.2.1/thumb/v7e-m+dp/hard\libgcc.a(_aeabi_uldivmod.o)
                                                  c:/arm_tool/gcc/bin/../lib/gcc/arm-none-eabi/8.2.1/thumb/v7e-m+dp/hard\libgcc.a(_aeabi_ldivmod.o)
__aeabi_ldivmod                                   c:/arm_tool/gcc/bin/../lib/gcc/arm-none-eabi/8.2.1/thumb/v7e-m+dp/hard\libgcc.a(_aeabi_ldivmod.o)
                                                  build/stm32h7xx_hal_uart.o
__aeabi_uldivmod                                  c:/arm_tool/gcc/bin/../lib/gcc/arm-none-eabi/8.2.1/thumb/v7e-m+dp/hard\libgcc.a(_aeabi_uldivmod.o)
                                                  build/stm32h7xx_hal_uart.o
__any_on                                          c:/arm_tool/gcc/bin/../lib/gcc/arm-none-eabi/8.2.1/../../../../arm-none-eabi/lib/thumb/v7e-m+dp/hard\libc_nano.a(lib_a-mprec.o)
__ascii_mbtowc                                    c:/arm_tool/gcc/bin/../lib/gcc/arm-none-eabi/8.2.1/../../../../arm-none-eabi/lib/thumb/v7e-m+dp/hard\libc_nano.a(lib_a-mbtowc_r.o)
                                                  c:/arm_tool/gcc/bin/../lib/gcc/arm-none-eabi/8.2.1/../../../../arm-none-eabi/lib/thumb/v7e-m+dp/hard\libc_nano.a(lib_a-locale.o)
__ascii_wctomb                                    c:/arm_tool/gcc/bin/../lib/gcc/arm-none-eabi/8.2.1/../../../../arm-none-eabi/lib/thumb/v7e-m+dp/hard\libc_nano.a(lib_a-wctomb_r.o)
                                                  c:/arm_tool/gcc/bin/../lib/gcc/arm-none-eabi/8.2.1/../../../../arm-none-eabi/lib/thumb/v7e-m+dp/hard\libc_nano.a(lib_a-locale.o)
__b2d                                             c:/arm_tool/gcc/bin/../lib/gcc/arm-none-eabi/8.2.1/../../../../arm-none-eabi/lib/thumb/v7e-m+dp/hard\libc_nano.a(lib_a-mprec.o)
__bss_end__                                       c:/arm_tool/gcc/bin/../lib/gcc/arm-none-eabi/8.2.1/../../../../arm-none-eabi/lib/thumb/v7e-m+dp/hard/crt0.o
__bss_start__                                     c:/arm_tool/gcc/bin/../lib/gcc/arm-none-eabi/8.2.1/../../../../arm-none-eabi/lib/thumb/v7e-m+dp/hard/crt0.o
__call_exitprocs                                  c:/arm_tool/gcc/bin/../lib/gcc/arm-none-eabi/8.2.1/../../../../arm-none-eabi/lib/thumb/v7e-m+dp/hard\libc_nano.a(lib_a-exit.o)
__copybits                                        c:/arm_tool/gcc/bin/../lib/gcc/arm-none-eabi/8.2.1/../../../../arm-none-eabi/lib/thumb/v7e-m+dp/hard\libc_nano.a(lib_a-mprec.o)
__cvt                                             c:/arm_tool/gcc/bin/../lib/gcc/arm-none-eabi/8.2.1/../../../../arm-none-eabi/lib/thumb/v7e-m+dp/hard\libc_nano.a(lib_a-nano-vfprintf_float.o)
__d2b                                             c:/arm_tool/gcc/bin/../lib/gcc/arm-none-eabi/8.2.1/../../../../arm-none-eabi/lib/thumb/v7e-m+dp/hard\libc_nano.a(lib_a-mprec.o)
                                                  c:/arm_tool/gcc/bin/../lib/gcc/arm-none-eabi/8.2.1/../../../../arm-none-eabi/lib/thumb/v7e-m+dp/hard\libc_nano.a(lib_a-dtoa.o)
__deregister_frame_info                           c:/arm_tool/gcc/bin/../lib/gcc/arm-none-eabi/8.2.1/thumb/v7e-m+dp/hard/crtbegin.o
__dso_handle                                      c:/arm_tool/gcc/bin/../lib/gcc/arm-none-eabi/8.2.1/thumb/v7e-m+dp/hard/crtbegin.o
__exponent                                        c:/arm_tool/gcc/bin/../lib/gcc/arm-none-eabi/8.2.1/../../../../arm-none-eabi/lib/thumb/v7e-m+dp/hard\libc_nano.a(lib_a-nano-vfprintf_float.o)
__fp_lock_all                                     c:/arm_tool/gcc/bin/../lib/gcc/arm-none-eabi/8.2.1/../../../../arm-none-eabi/lib/thumb/v7e-m+dp/hard\libc_nano.a(lib_a-findfp.o)
__fp_unlock_all                                   c:/arm_tool/gcc/bin/../lib/gcc/arm-none-eabi/8.2.1/../../../../arm-none-eabi/lib/thumb/v7e-m+dp/hard\libc_nano.a(lib_a-findfp.o)
__global_locale                                   c:/arm_tool/gcc/bin/../lib/gcc/arm-none-eabi/8.2.1/../../../../arm-none-eabi/lib/thumb/v7e-m+dp/hard\libc_nano.a(lib_a-locale.o)
                                                  c:/arm_tool/gcc/bin/../lib/gcc/arm-none-eabi/8.2.1/../../../../arm-none-eabi/lib/thumb/v7e-m+dp/hard\libc_nano.a(lib_a-wctomb_r.o)
                                                  c:/arm_tool/gcc/bin/../lib/gcc/arm-none-eabi/8.2.1/../../../../arm-none-eabi/lib/thumb/v7e-m+dp/hard\libc_nano.a(lib_a-mbtowc_r.o)
                                                  c:/arm_tool/gcc/bin/../lib/gcc/arm-none-eabi/8.2.1/../../../../arm-none-eabi/lib/thumb/v7e-m+dp/hard\libc_nano.a(lib_a-localeconv.o)
__hi0bits                                         c:/arm_tool/gcc/bin/../lib/gcc/arm-none-eabi/8.2.1/../../../../arm-none-eabi/lib/thumb/v7e-m+dp/hard\libc_nano.a(lib_a-mprec.o)
                                                  c:/arm_tool/gcc/bin/../lib/gcc/arm-none-eabi/8.2.1/../../../../arm-none-eabi/lib/thumb/v7e-m+dp/hard\libc_nano.a(lib_a-dtoa.o)
__i2b                                             c:/arm_tool/gcc/bin/../lib/gcc/arm-none-eabi/8.2.1/../../../../arm-none-eabi/lib/thumb/v7e-m+dp/hard\libc_nano.a(lib_a-mprec.o)
                                                  c:/arm_tool/gcc/bin/../lib/gcc/arm-none-eabi/8.2.1/../../../../arm-none-eabi/lib/thumb/v7e-m+dp/hard\libc_nano.a(lib_a-dtoa.o)
__init_array_end                                  c:/arm_tool/gcc/bin/../lib/gcc/arm-none-eabi/8.2.1/../../../../arm-none-eabi/lib/thumb/v7e-m+dp/hard\libc_nano.a(lib_a-init.o)
__init_array_start                                c:/arm_tool/gcc/bin/../lib/gcc/arm-none-eabi/8.2.1/../../../../arm-none-eabi/lib/thumb/v7e-m+dp/hard\libc_nano.a(lib_a-init.o)
__libc_fini_array                                 c:/arm_tool/gcc/bin/../lib/gcc/arm-none-eabi/8.2.1/../../../../arm-none-eabi/lib/thumb/v7e-m+dp/hard/crt0.o
__libc_init_array                                 c:/arm_tool/gcc/bin/../lib/gcc/arm-none-eabi/8.2.1/../../../../arm-none-eabi/lib/thumb/v7e-m+dp/hard\libc_nano.a(lib_a-init.o)
                                                  build/startup_stm32h743xx.o
                                                  c:/arm_tool/gcc/bin/../lib/gcc/arm-none-eabi/8.2.1/../../../../arm-none-eabi/lib/thumb/v7e-m+dp/hard/crt0.o
__lo0bits                                         c:/arm_tool/gcc/bin/../lib/gcc/arm-none-eabi/8.2.1/../../../../arm-none-eabi/lib/thumb/v7e-m+dp/hard\libc_nano.a(lib_a-mprec.o)
__locale_mb_cur_max                               c:/arm_tool/gcc/bin/../lib/gcc/arm-none-eabi/8.2.1/../../../../arm-none-eabi/lib/thumb/v7e-m+dp/hard\libc_nano.a(lib_a-locale.o)
__localeconv_l                                    c:/arm_tool/gcc/bin/../lib/gcc/arm-none-eabi/8.2.1/../../../../arm-none-eabi/lib/thumb/v7e-m+dp/hard\libc_nano.a(lib_a-localeconv.o)
__lock___arc4random_mutex                         c:/arm_tool/gcc/bin/../lib/gcc/arm-none-eabi/8.2.1/../../../../arm-none-eabi/lib/thumb/v7e-m+dp/hard\libc_nano.a(lib_a-lock.o)
__lock___at_quick_exit_mutex                      c:/arm_tool/gcc/bin/../lib/gcc/arm-none-eabi/8.2.1/../../../../arm-none-eabi/lib/thumb/v7e-m+dp/hard\libc_nano.a(lib_a-lock.o)
__lock___atexit_recursive_mutex                   c:/arm_tool/gcc/bin/../lib/gcc/arm-none-eabi/8.2.1/../../../../arm-none-eabi/lib/thumb/v7e-m+dp/hard\libc_nano.a(lib_a-lock.o)
__lock___dd_hash_mutex                            c:/arm_tool/gcc/bin/../lib/gcc/arm-none-eabi/8.2.1/../../../../arm-none-eabi/lib/thumb/v7e-m+dp/hard\libc_nano.a(lib_a-lock.o)
__lock___env_recursive_mutex                      c:/arm_tool/gcc/bin/../lib/gcc/arm-none-eabi/8.2.1/../../../../arm-none-eabi/lib/thumb/v7e-m+dp/hard\libc_nano.a(lib_a-lock.o)
__lock___malloc_recursive_mutex                   c:/arm_tool/gcc/bin/../lib/gcc/arm-none-eabi/8.2.1/../../../../arm-none-eabi/lib/thumb/v7e-m+dp/hard\libc_nano.a(lib_a-lock.o)
                                                  c:/arm_tool/gcc/bin/../lib/gcc/arm-none-eabi/8.2.1/../../../../arm-none-eabi/lib/thumb/v7e-m+dp/hard\libc_nano.a(lib_a-mlock.o)
__lock___sfp_recursive_mutex                      c:/arm_tool/gcc/bin/../lib/gcc/arm-none-eabi/8.2.1/../../../../arm-none-eabi/lib/thumb/v7e-m+dp/hard\libc_nano.a(lib_a-lock.o)
                                                  c:/arm_tool/gcc/bin/../lib/gcc/arm-none-eabi/8.2.1/../../../../arm-none-eabi/lib/thumb/v7e-m+dp/hard\libc_nano.a(lib_a-findfp.o)
__lock___sinit_recursive_mutex                    c:/arm_tool/gcc/bin/../lib/gcc/arm-none-eabi/8.2.1/../../../../arm-none-eabi/lib/thumb/v7e-m+dp/hard\libc_nano.a(lib_a-lock.o)
                                                  c:/arm_tool/gcc/bin/../lib/gcc/arm-none-eabi/8.2.1/../../../../arm-none-eabi/lib/thumb/v7e-m+dp/hard\libc_nano.a(lib_a-findfp.o)
__lock___tz_mutex                                 c:/arm_tool/gcc/bin/../lib/gcc/arm-none-eabi/8.2.1/../../../../arm-none-eabi/lib/thumb/v7e-m+dp/hard\libc_nano.a(lib_a-lock.o)
__lshift                                          c:/arm_tool/gcc/bin/../lib/gcc/arm-none-eabi/8.2.1/../../../../arm-none-eabi/lib/thumb/v7e-m+dp/hard\libc_nano.a(lib_a-mprec.o)
                                                  c:/arm_tool/gcc/bin/../lib/gcc/arm-none-eabi/8.2.1/../../../../arm-none-eabi/lib/thumb/v7e-m+dp/hard\libc_nano.a(lib_a-dtoa.o)
__malloc_free_list                                c:/arm_tool/gcc/bin/../lib/gcc/arm-none-eabi/8.2.1/../../../../arm-none-eabi/lib/thumb/v7e-m+dp/hard\libc_nano.a(lib_a-nano-mallocr.o)
                                                  c:/arm_tool/gcc/bin/../lib/gcc/arm-none-eabi/8.2.1/../../../../arm-none-eabi/lib/thumb/v7e-m+dp/hard\libc_nano.a(lib_a-nano-freer.o)
__malloc_lock                                     c:/arm_tool/gcc/bin/../lib/gcc/arm-none-eabi/8.2.1/../../../../arm-none-eabi/lib/thumb/v7e-m+dp/hard\libc_nano.a(lib_a-mlock.o)
                                                  c:/arm_tool/gcc/bin/../lib/gcc/arm-none-eabi/8.2.1/../../../../arm-none-eabi/lib/thumb/v7e-m+dp/hard\libc_nano.a(lib_a-nano-mallocr.o)
                                                  c:/arm_tool/gcc/bin/../lib/gcc/arm-none-eabi/8.2.1/../../../../arm-none-eabi/lib/thumb/v7e-m+dp/hard\libc_nano.a(lib_a-nano-freer.o)
__malloc_sbrk_start                               c:/arm_tool/gcc/bin/../lib/gcc/arm-none-eabi/8.2.1/../../../../arm-none-eabi/lib/thumb/v7e-m+dp/hard\libc_nano.a(lib_a-nano-mallocr.o)
__malloc_unlock                                   c:/arm_tool/gcc/bin/../lib/gcc/arm-none-eabi/8.2.1/../../../../arm-none-eabi/lib/thumb/v7e-m+dp/hard\libc_nano.a(lib_a-mlock.o)
                                                  c:/arm_tool/gcc/bin/../lib/gcc/arm-none-eabi/8.2.1/../../../../arm-none-eabi/lib/thumb/v7e-m+dp/hard\libc_nano.a(lib_a-nano-mallocr.o)
                                                  c:/arm_tool/gcc/bin/../lib/gcc/arm-none-eabi/8.2.1/../../../../arm-none-eabi/lib/thumb/v7e-m+dp/hard\libc_nano.a(lib_a-nano-freer.o)
__mcmp                                            c:/arm_tool/gcc/bin/../lib/gcc/arm-none-eabi/8.2.1/../../../../arm-none-eabi/lib/thumb/v7e-m+dp/hard\libc_nano.a(lib_a-mprec.o)
                                                  c:/arm_tool/gcc/bin/../lib/gcc/arm-none-eabi/8.2.1/../../../../arm-none-eabi/lib/thumb/v7e-m+dp/hard\libc_nano.a(lib_a-dtoa.o)
__mdiff                                           c:/arm_tool/gcc/bin/../lib/gcc/arm-none-eabi/8.2.1/../../../../arm-none-eabi/lib/thumb/v7e-m+dp/hard\libc_nano.a(lib_a-mprec.o)
                                                  c:/arm_tool/gcc/bin/../lib/gcc/arm-none-eabi/8.2.1/../../../../arm-none-eabi/lib/thumb/v7e-m+dp/hard\libc_nano.a(lib_a-dtoa.o)
__mprec_bigtens                                   c:/arm_tool/gcc/bin/../lib/gcc/arm-none-eabi/8.2.1/../../../../arm-none-eabi/lib/thumb/v7e-m+dp/hard\libc_nano.a(lib_a-mprec.o)
                                                  c:/arm_tool/gcc/bin/../lib/gcc/arm-none-eabi/8.2.1/../../../../arm-none-eabi/lib/thumb/v7e-m+dp/hard\libc_nano.a(lib_a-dtoa.o)
__mprec_tens                                      c:/arm_tool/gcc/bin/../lib/gcc/arm-none-eabi/8.2.1/../../../../arm-none-eabi/lib/thumb/v7e-m+dp/hard\libc_nano.a(lib_a-mprec.o)
                                                  c:/arm_tool/gcc/bin/../lib/gcc/arm-none-eabi/8.2.1/../../../../arm-none-eabi/lib/thumb/v7e-m+dp/hard\libc_nano.a(lib_a-dtoa.o)
__mprec_tinytens                                  c:/arm_tool/gcc/bin/../lib/gcc/arm-none-eabi/8.2.1/../../../../arm-none-eabi/lib/thumb/v7e-m+dp/hard\libc_nano.a(lib_a-mprec.o)
__multadd                                         c:/arm_tool/gcc/bin/../lib/gcc/arm-none-eabi/8.2.1/../../../../arm-none-eabi/lib/thumb/v7e-m+dp/hard\libc_nano.a(lib_a-mprec.o)
                                                  c:/arm_tool/gcc/bin/../lib/gcc/arm-none-eabi/8.2.1/../../../../arm-none-eabi/lib/thumb/v7e-m+dp/hard\libc_nano.a(lib_a-dtoa.o)
__multiply                                        c:/arm_tool/gcc/bin/../lib/gcc/arm-none-eabi/8.2.1/../../../../arm-none-eabi/lib/thumb/v7e-m+dp/hard\libc_nano.a(lib_a-mprec.o)
                                                  c:/arm_tool/gcc/bin/../lib/gcc/arm-none-eabi/8.2.1/../../../../arm-none-eabi/lib/thumb/v7e-m+dp/hard\libc_nano.a(lib_a-dtoa.o)
__pow5mult                                        c:/arm_tool/gcc/bin/../lib/gcc/arm-none-eabi/8.2.1/../../../../arm-none-eabi/lib/thumb/v7e-m+dp/hard\libc_nano.a(lib_a-mprec.o)
                                                  c:/arm_tool/gcc/bin/../lib/gcc/arm-none-eabi/8.2.1/../../../../arm-none-eabi/lib/thumb/v7e-m+dp/hard\libc_nano.a(lib_a-dtoa.o)
__preinit_array_end                               c:/arm_tool/gcc/bin/../lib/gcc/arm-none-eabi/8.2.1/../../../../arm-none-eabi/lib/thumb/v7e-m+dp/hard\libc_nano.a(lib_a-init.o)
__preinit_array_start                             c:/arm_tool/gcc/bin/../lib/gcc/arm-none-eabi/8.2.1/../../../../arm-none-eabi/lib/thumb/v7e-m+dp/hard\libc_nano.a(lib_a-init.o)
__ratio                                           c:/arm_tool/gcc/bin/../lib/gcc/arm-none-eabi/8.2.1/../../../../arm-none-eabi/lib/thumb/v7e-m+dp/hard\libc_nano.a(lib_a-mprec.o)
__register_frame_info                             c:/arm_tool/gcc/bin/../lib/gcc/arm-none-eabi/8.2.1/thumb/v7e-m+dp/hard/crtbegin.o
__retarget_lock_acquire                           c:/arm_tool/gcc/bin/../lib/gcc/arm-none-eabi/8.2.1/../../../../arm-none-eabi/lib/thumb/v7e-m+dp/hard\libc_nano.a(lib_a-lock.o)
__retarget_lock_acquire_recursive                 c:/arm_tool/gcc/bin/../lib/gcc/arm-none-eabi/8.2.1/../../../../arm-none-eabi/lib/thumb/v7e-m+dp/hard\libc_nano.a(lib_a-lock.o)
                                                  c:/arm_tool/gcc/bin/../lib/gcc/arm-none-eabi/8.2.1/../../../../arm-none-eabi/lib/thumb/v7e-m+dp/hard\libc_nano.a(lib_a-mlock.o)
                                                  c:/arm_tool/gcc/bin/../lib/gcc/arm-none-eabi/8.2.1/../../../../arm-none-eabi/lib/thumb/v7e-m+dp/hard\libc_nano.a(lib_a-putc.o)
                                                  c:/arm_tool/gcc/bin/../lib/gcc/arm-none-eabi/8.2.1/../../../../arm-none-eabi/lib/thumb/v7e-m+dp/hard\libc_nano.a(lib_a-nano-vfprintf.o)
                                                  c:/arm_tool/gcc/bin/../lib/gcc/arm-none-eabi/8.2.1/../../../../arm-none-eabi/lib/thumb/v7e-m+dp/hard\libc_nano.a(lib_a-findfp.o)
                                                  c:/arm_tool/gcc/bin/../lib/gcc/arm-none-eabi/8.2.1/../../../../arm-none-eabi/lib/thumb/v7e-m+dp/hard\libc_nano.a(lib_a-fflush.o)
                                                  c:/arm_tool/gcc/bin/../lib/gcc/arm-none-eabi/8.2.1/../../../../arm-none-eabi/lib/thumb/v7e-m+dp/hard\libc_nano.a(lib_a-puts.o)
__retarget_lock_close                             c:/arm_tool/gcc/bin/../lib/gcc/arm-none-eabi/8.2.1/../../../../arm-none-eabi/lib/thumb/v7e-m+dp/hard\libc_nano.a(lib_a-lock.o)
__retarget_lock_close_recursive                   c:/arm_tool/gcc/bin/../lib/gcc/arm-none-eabi/8.2.1/../../../../arm-none-eabi/lib/thumb/v7e-m+dp/hard\libc_nano.a(lib_a-lock.o)
__retarget_lock_init                              c:/arm_tool/gcc/bin/../lib/gcc/arm-none-eabi/8.2.1/../../../../arm-none-eabi/lib/thumb/v7e-m+dp/hard\libc_nano.a(lib_a-lock.o)
__retarget_lock_init_recursive                    c:/arm_tool/gcc/bin/../lib/gcc/arm-none-eabi/8.2.1/../../../../arm-none-eabi/lib/thumb/v7e-m+dp/hard\libc_nano.a(lib_a-lock.o)
                                                  c:/arm_tool/gcc/bin/../lib/gcc/arm-none-eabi/8.2.1/../../../../arm-none-eabi/lib/thumb/v7e-m+dp/hard\libc_nano.a(lib_a-findfp.o)
__retarget_lock_release                           c:/arm_tool/gcc/bin/../lib/gcc/arm-none-eabi/8.2.1/../../../../arm-none-eabi/lib/thumb/v7e-m+dp/hard\libc_nano.a(lib_a-lock.o)
__retarget_lock_release_recursive                 c:/arm_tool/gcc/bin/../lib/gcc/arm-none-eabi/8.2.1/../../../../arm-none-eabi/lib/thumb/v7e-m+dp/hard\libc_nano.a(lib_a-lock.o)
                                                  c:/arm_tool/gcc/bin/../lib/gcc/arm-none-eabi/8.2.1/../../../../arm-none-eabi/lib/thumb/v7e-m+dp/hard\libc_nano.a(lib_a-mlock.o)
                                                  c:/arm_tool/gcc/bin/../lib/gcc/arm-none-eabi/8.2.1/../../../../arm-none-eabi/lib/thumb/v7e-m+dp/hard\libc_nano.a(lib_a-putc.o)
                                                  c:/arm_tool/gcc/bin/../lib/gcc/arm-none-eabi/8.2.1/../../../../arm-none-eabi/lib/thumb/v7e-m+dp/hard\libc_nano.a(lib_a-nano-vfprintf.o)
                                                  c:/arm_tool/gcc/bin/../lib/gcc/arm-none-eabi/8.2.1/../../../../arm-none-eabi/lib/thumb/v7e-m+dp/hard\libc_nano.a(lib_a-findfp.o)
                                                  c:/arm_tool/gcc/bin/../lib/gcc/arm-none-eabi/8.2.1/../../../../arm-none-eabi/lib/thumb/v7e-m+dp/hard\libc_nano.a(lib_a-fflush.o)
                                                  c:/arm_tool/gcc/bin/../lib/gcc/arm-none-eabi/8.2.1/../../../../arm-none-eabi/lib/thumb/v7e-m+dp/hard\libc_nano.a(lib_a-puts.o)
__retarget_lock_try_acquire                       c:/arm_tool/gcc/bin/../lib/gcc/arm-none-eabi/8.2.1/../../../../arm-none-eabi/lib/thumb/v7e-m+dp/hard\libc_nano.a(lib_a-lock.o)
__retarget_lock_try_acquire_recursive             c:/arm_tool/gcc/bin/../lib/gcc/arm-none-eabi/8.2.1/../../../../arm-none-eabi/lib/thumb/v7e-m+dp/hard\libc_nano.a(lib_a-lock.o)
__s2b                                             c:/arm_tool/gcc/bin/../lib/gcc/arm-none-eabi/8.2.1/../../../../arm-none-eabi/lib/thumb/v7e-m+dp/hard\libc_nano.a(lib_a-mprec.o)
__sclose                                          c:/arm_tool/gcc/bin/../lib/gcc/arm-none-eabi/8.2.1/../../../../arm-none-eabi/lib/thumb/v7e-m+dp/hard\libc_nano.a(lib_a-stdio.o)
                                                  c:/arm_tool/gcc/bin/../lib/gcc/arm-none-eabi/8.2.1/../../../../arm-none-eabi/lib/thumb/v7e-m+dp/hard\libc_nano.a(lib_a-findfp.o)
__seofread                                        c:/arm_tool/gcc/bin/../lib/gcc/arm-none-eabi/8.2.1/../../../../arm-none-eabi/lib/thumb/v7e-m+dp/hard\libc_nano.a(lib_a-stdio.o)
__sf_fake_stderr                                  c:/arm_tool/gcc/bin/../lib/gcc/arm-none-eabi/8.2.1/../../../../arm-none-eabi/lib/thumb/v7e-m+dp/hard\libc_nano.a(lib_a-findfp.o)
                                                  c:/arm_tool/gcc/bin/../lib/gcc/arm-none-eabi/8.2.1/../../../../arm-none-eabi/lib/thumb/v7e-m+dp/hard\libc_nano.a(lib_a-putc.o)
                                                  c:/arm_tool/gcc/bin/../lib/gcc/arm-none-eabi/8.2.1/../../../../arm-none-eabi/lib/thumb/v7e-m+dp/hard\libc_nano.a(lib_a-nano-vfprintf.o)
                                                  c:/arm_tool/gcc/bin/../lib/gcc/arm-none-eabi/8.2.1/../../../../arm-none-eabi/lib/thumb/v7e-m+dp/hard\libc_nano.a(lib_a-fflush.o)
                                                  c:/arm_tool/gcc/bin/../lib/gcc/arm-none-eabi/8.2.1/../../../../arm-none-eabi/lib/thumb/v7e-m+dp/hard\libc_nano.a(lib_a-wsetup.o)
                                                  c:/arm_tool/gcc/bin/../lib/gcc/arm-none-eabi/8.2.1/../../../../arm-none-eabi/lib/thumb/v7e-m+dp/hard\libc_nano.a(lib_a-wbuf.o)
                                                  c:/arm_tool/gcc/bin/../lib/gcc/arm-none-eabi/8.2.1/../../../../arm-none-eabi/lib/thumb/v7e-m+dp/hard\libc_nano.a(lib_a-puts.o)
                                                  c:/arm_tool/gcc/bin/../lib/gcc/arm-none-eabi/8.2.1/../../../../arm-none-eabi/lib/thumb/v7e-m+dp/hard\libc_nano.a(lib_a-impure.o)
__sf_fake_stdin                                   c:/arm_tool/gcc/bin/../lib/gcc/arm-none-eabi/8.2.1/../../../../arm-none-eabi/lib/thumb/v7e-m+dp/hard\libc_nano.a(lib_a-findfp.o)
                                                  c:/arm_tool/gcc/bin/../lib/gcc/arm-none-eabi/8.2.1/../../../../arm-none-eabi/lib/thumb/v7e-m+dp/hard\libc_nano.a(lib_a-putc.o)
                                                  c:/arm_tool/gcc/bin/../lib/gcc/arm-none-eabi/8.2.1/../../../../arm-none-eabi/lib/thumb/v7e-m+dp/hard\libc_nano.a(lib_a-nano-vfprintf.o)
                                                  c:/arm_tool/gcc/bin/../lib/gcc/arm-none-eabi/8.2.1/../../../../arm-none-eabi/lib/thumb/v7e-m+dp/hard\libc_nano.a(lib_a-fflush.o)
                                                  c:/arm_tool/gcc/bin/../lib/gcc/arm-none-eabi/8.2.1/../../../../arm-none-eabi/lib/thumb/v7e-m+dp/hard\libc_nano.a(lib_a-wsetup.o)
                                                  c:/arm_tool/gcc/bin/../lib/gcc/arm-none-eabi/8.2.1/../../../../arm-none-eabi/lib/thumb/v7e-m+dp/hard\libc_nano.a(lib_a-wbuf.o)
                                                  c:/arm_tool/gcc/bin/../lib/gcc/arm-none-eabi/8.2.1/../../../../arm-none-eabi/lib/thumb/v7e-m+dp/hard\libc_nano.a(lib_a-puts.o)
                                                  c:/arm_tool/gcc/bin/../lib/gcc/arm-none-eabi/8.2.1/../../../../arm-none-eabi/lib/thumb/v7e-m+dp/hard\libc_nano.a(lib_a-impure.o)
__sf_fake_stdout                                  c:/arm_tool/gcc/bin/../lib/gcc/arm-none-eabi/8.2.1/../../../../arm-none-eabi/lib/thumb/v7e-m+dp/hard\libc_nano.a(lib_a-findfp.o)
                                                  c:/arm_tool/gcc/bin/../lib/gcc/arm-none-eabi/8.2.1/../../../../arm-none-eabi/lib/thumb/v7e-m+dp/hard\libc_nano.a(lib_a-putc.o)
                                                  c:/arm_tool/gcc/bin/../lib/gcc/arm-none-eabi/8.2.1/../../../../arm-none-eabi/lib/thumb/v7e-m+dp/hard\libc_nano.a(lib_a-nano-vfprintf.o)
                                                  c:/arm_tool/gcc/bin/../lib/gcc/arm-none-eabi/8.2.1/../../../../arm-none-eabi/lib/thumb/v7e-m+dp/hard\libc_nano.a(lib_a-fflush.o)
                                                  c:/arm_tool/gcc/bin/../lib/gcc/arm-none-eabi/8.2.1/../../../../arm-none-eabi/lib/thumb/v7e-m+dp/hard\libc_nano.a(lib_a-wsetup.o)
                                                  c:/arm_tool/gcc/bin/../lib/gcc/arm-none-eabi/8.2.1/../../../../arm-none-eabi/lib/thumb/v7e-m+dp/hard\libc_nano.a(lib_a-wbuf.o)
                                                  c:/arm_tool/gcc/bin/../lib/gcc/arm-none-eabi/8.2.1/../../../../arm-none-eabi/lib/thumb/v7e-m+dp/hard\libc_nano.a(lib_a-puts.o)
                                                  c:/arm_tool/gcc/bin/../lib/gcc/arm-none-eabi/8.2.1/../../../../arm-none-eabi/lib/thumb/v7e-m+dp/hard\libc_nano.a(lib_a-impure.o)
__sflush_r                                        c:/arm_tool/gcc/bin/../lib/gcc/arm-none-eabi/8.2.1/../../../../arm-none-eabi/lib/thumb/v7e-m+dp/hard\libc_nano.a(lib_a-fflush.o)
__sfmoreglue                                      c:/arm_tool/gcc/bin/../lib/gcc/arm-none-eabi/8.2.1/../../../../arm-none-eabi/lib/thumb/v7e-m+dp/hard\libc_nano.a(lib_a-findfp.o)
__sfp                                             c:/arm_tool/gcc/bin/../lib/gcc/arm-none-eabi/8.2.1/../../../../arm-none-eabi/lib/thumb/v7e-m+dp/hard\libc_nano.a(lib_a-findfp.o)
__sfp_lock_acquire                                c:/arm_tool/gcc/bin/../lib/gcc/arm-none-eabi/8.2.1/../../../../arm-none-eabi/lib/thumb/v7e-m+dp/hard\libc_nano.a(lib_a-findfp.o)
__sfp_lock_release                                c:/arm_tool/gcc/bin/../lib/gcc/arm-none-eabi/8.2.1/../../../../arm-none-eabi/lib/thumb/v7e-m+dp/hard\libc_nano.a(lib_a-findfp.o)
__sfputs_r                                        c:/arm_tool/gcc/bin/../lib/gcc/arm-none-eabi/8.2.1/../../../../arm-none-eabi/lib/thumb/v7e-m+dp/hard\libc_nano.a(lib_a-nano-vfprintf.o)
__sfvwrite_r                                      c:/arm_tool/gcc/bin/../lib/gcc/arm-none-eabi/8.2.1/../../../../arm-none-eabi/lib/thumb/v7e-m+dp/hard\libc_nano.a(lib_a-fvwrite.o)
                                                  c:/arm_tool/gcc/bin/../lib/gcc/arm-none-eabi/8.2.1/../../../../arm-none-eabi/lib/thumb/v7e-m+dp/hard\libc_nano.a(lib_a-nano-vfprintf.o)
__sinit                                           c:/arm_tool/gcc/bin/../lib/gcc/arm-none-eabi/8.2.1/../../../../arm-none-eabi/lib/thumb/v7e-m+dp/hard\libc_nano.a(lib_a-findfp.o)
                                                  c:/arm_tool/gcc/bin/../lib/gcc/arm-none-eabi/8.2.1/../../../../arm-none-eabi/lib/thumb/v7e-m+dp/hard\libc_nano.a(lib_a-putc.o)
                                                  c:/arm_tool/gcc/bin/../lib/gcc/arm-none-eabi/8.2.1/../../../../arm-none-eabi/lib/thumb/v7e-m+dp/hard\libc_nano.a(lib_a-nano-vfprintf.o)
                                                  c:/arm_tool/gcc/bin/../lib/gcc/arm-none-eabi/8.2.1/../../../../arm-none-eabi/lib/thumb/v7e-m+dp/hard\libc_nano.a(lib_a-fflush.o)
                                                  c:/arm_tool/gcc/bin/../lib/gcc/arm-none-eabi/8.2.1/../../../../arm-none-eabi/lib/thumb/v7e-m+dp/hard\libc_nano.a(lib_a-wsetup.o)
                                                  c:/arm_tool/gcc/bin/../lib/gcc/arm-none-eabi/8.2.1/../../../../arm-none-eabi/lib/thumb/v7e-m+dp/hard\libc_nano.a(lib_a-wbuf.o)
                                                  c:/arm_tool/gcc/bin/../lib/gcc/arm-none-eabi/8.2.1/../../../../arm-none-eabi/lib/thumb/v7e-m+dp/hard\libc_nano.a(lib_a-puts.o)
                                                  c:/arm_tool/gcc/bin/../lib/gcc/arm-none-eabi/8.2.1/../../../../arm-none-eabi/lib/thumb/v7e-m+dp/hard\libc_nano.a(lib_a-putchar.o)
                                                  c:/arm_tool/gcc/bin/../lib/gcc/arm-none-eabi/8.2.1/../../../../arm-none-eabi/lib/thumb/v7e-m+dp/hard\libc_nano.a(lib_a-printf.o)
__sinit_lock_acquire                              c:/arm_tool/gcc/bin/../lib/gcc/arm-none-eabi/8.2.1/../../../../arm-none-eabi/lib/thumb/v7e-m+dp/hard\libc_nano.a(lib_a-findfp.o)
__sinit_lock_release                              c:/arm_tool/gcc/bin/../lib/gcc/arm-none-eabi/8.2.1/../../../../arm-none-eabi/lib/thumb/v7e-m+dp/hard\libc_nano.a(lib_a-findfp.o)
__smakebuf_r                                      c:/arm_tool/gcc/bin/../lib/gcc/arm-none-eabi/8.2.1/../../../../arm-none-eabi/lib/thumb/v7e-m+dp/hard\libc_nano.a(lib_a-makebuf.o)
                                                  c:/arm_tool/gcc/bin/../lib/gcc/arm-none-eabi/8.2.1/../../../../arm-none-eabi/lib/thumb/v7e-m+dp/hard\libc_nano.a(lib_a-wsetup.o)
__sprint_r                                        c:/arm_tool/gcc/bin/../lib/gcc/arm-none-eabi/8.2.1/../../../../arm-none-eabi/lib/thumb/v7e-m+dp/hard\libc_nano.a(lib_a-nano-vfprintf.o)
__sread                                           c:/arm_tool/gcc/bin/../lib/gcc/arm-none-eabi/8.2.1/../../../../arm-none-eabi/lib/thumb/v7e-m+dp/hard\libc_nano.a(lib_a-stdio.o)
                                                  c:/arm_tool/gcc/bin/../lib/gcc/arm-none-eabi/8.2.1/../../../../arm-none-eabi/lib/thumb/v7e-m+dp/hard\libc_nano.a(lib_a-findfp.o)
__sseek                                           c:/arm_tool/gcc/bin/../lib/gcc/arm-none-eabi/8.2.1/../../../../arm-none-eabi/lib/thumb/v7e-m+dp/hard\libc_nano.a(lib_a-stdio.o)
                                                  c:/arm_tool/gcc/bin/../lib/gcc/arm-none-eabi/8.2.1/../../../../arm-none-eabi/lib/thumb/v7e-m+dp/hard\libc_nano.a(lib_a-findfp.o)
__stack                                           c:/arm_tool/gcc/bin/../lib/gcc/arm-none-eabi/8.2.1/../../../../arm-none-eabi/lib/thumb/v7e-m+dp/hard/crt0.o
__swbuf                                           c:/arm_tool/gcc/bin/../lib/gcc/arm-none-eabi/8.2.1/../../../../arm-none-eabi/lib/thumb/v7e-m+dp/hard\libc_nano.a(lib_a-wbuf.o)
__swbuf_r                                         c:/arm_tool/gcc/bin/../lib/gcc/arm-none-eabi/8.2.1/../../../../arm-none-eabi/lib/thumb/v7e-m+dp/hard\libc_nano.a(lib_a-wbuf.o)
                                                  c:/arm_tool/gcc/bin/../lib/gcc/arm-none-eabi/8.2.1/../../../../arm-none-eabi/lib/thumb/v7e-m+dp/hard\libc_nano.a(lib_a-putc.o)
                                                  c:/arm_tool/gcc/bin/../lib/gcc/arm-none-eabi/8.2.1/../../../../arm-none-eabi/lib/thumb/v7e-m+dp/hard\libc_nano.a(lib_a-nano-vfprintf.o)
                                                  c:/arm_tool/gcc/bin/../lib/gcc/arm-none-eabi/8.2.1/../../../../arm-none-eabi/lib/thumb/v7e-m+dp/hard\libc_nano.a(lib_a-puts.o)
__swhatbuf_r                                      c:/arm_tool/gcc/bin/../lib/gcc/arm-none-eabi/8.2.1/../../../../arm-none-eabi/lib/thumb/v7e-m+dp/hard\libc_nano.a(lib_a-makebuf.o)
__swrite                                          c:/arm_tool/gcc/bin/../lib/gcc/arm-none-eabi/8.2.1/../../../../arm-none-eabi/lib/thumb/v7e-m+dp/hard\libc_nano.a(lib_a-stdio.o)
                                                  c:/arm_tool/gcc/bin/../lib/gcc/arm-none-eabi/8.2.1/../../../../arm-none-eabi/lib/thumb/v7e-m+dp/hard\libc_nano.a(lib_a-findfp.o)
__swsetup_r                                       c:/arm_tool/gcc/bin/../lib/gcc/arm-none-eabi/8.2.1/../../../../arm-none-eabi/lib/thumb/v7e-m+dp/hard\libc_nano.a(lib_a-wsetup.o)
                                                  c:/arm_tool/gcc/bin/../lib/gcc/arm-none-eabi/8.2.1/../../../../arm-none-eabi/lib/thumb/v7e-m+dp/hard\libc_nano.a(lib_a-fvwrite.o)
                                                  c:/arm_tool/gcc/bin/../lib/gcc/arm-none-eabi/8.2.1/../../../../arm-none-eabi/lib/thumb/v7e-m+dp/hard\libc_nano.a(lib_a-nano-vfprintf.o)
                                                  c:/arm_tool/gcc/bin/../lib/gcc/arm-none-eabi/8.2.1/../../../../arm-none-eabi/lib/thumb/v7e-m+dp/hard\libc_nano.a(lib_a-wbuf.o)
                                                  c:/arm_tool/gcc/bin/../lib/gcc/arm-none-eabi/8.2.1/../../../../arm-none-eabi/lib/thumb/v7e-m+dp/hard\libc_nano.a(lib_a-puts.o)
__udivmoddi4                                      c:/arm_tool/gcc/bin/../lib/gcc/arm-none-eabi/8.2.1/thumb/v7e-m+dp/hard\libgcc.a(_udivmoddi4.o)
                                                  c:/arm_tool/gcc/bin/../lib/gcc/arm-none-eabi/8.2.1/thumb/v7e-m+dp/hard\libgcc.a(_aeabi_uldivmod.o)
                                                  c:/arm_tool/gcc/bin/../lib/gcc/arm-none-eabi/8.2.1/thumb/v7e-m+dp/hard\libgcc.a(_aeabi_ldivmod.o)
__ulp                                             c:/arm_tool/gcc/bin/../lib/gcc/arm-none-eabi/8.2.1/../../../../arm-none-eabi/lib/thumb/v7e-m+dp/hard\libc_nano.a(lib_a-mprec.o)
_calloc_r                                         c:/arm_tool/gcc/bin/../lib/gcc/arm-none-eabi/8.2.1/../../../../arm-none-eabi/lib/thumb/v7e-m+dp/hard\libc_nano.a(lib_a-nano-callocr.o)
                                                  c:/arm_tool/gcc/bin/../lib/gcc/arm-none-eabi/8.2.1/../../../../arm-none-eabi/lib/thumb/v7e-m+dp/hard\libc_nano.a(lib_a-mprec.o)
_cleanup                                          c:/arm_tool/gcc/bin/../lib/gcc/arm-none-eabi/8.2.1/../../../../arm-none-eabi/lib/thumb/v7e-m+dp/hard\libc_nano.a(lib_a-findfp.o)
_cleanup_r                                        c:/arm_tool/gcc/bin/../lib/gcc/arm-none-eabi/8.2.1/../../../../arm-none-eabi/lib/thumb/v7e-m+dp/hard\libc_nano.a(lib_a-findfp.o)
                                                  c:/arm_tool/gcc/bin/../lib/gcc/arm-none-eabi/8.2.1/../../../../arm-none-eabi/lib/thumb/v7e-m+dp/hard\libc_nano.a(lib_a-makebuf.o)
_close                                            c:/arm_tool/gcc/bin/../lib/gcc/arm-none-eabi/8.2.1/../../../../arm-none-eabi/lib/thumb/v7e-m+dp/hard\libnosys.a(close.o)
                                                  c:/arm_tool/gcc/bin/../lib/gcc/arm-none-eabi/8.2.1/../../../../arm-none-eabi/lib/thumb/v7e-m+dp/hard\libc_nano.a(lib_a-closer.o)
_close_r                                          c:/arm_tool/gcc/bin/../lib/gcc/arm-none-eabi/8.2.1/../../../../arm-none-eabi/lib/thumb/v7e-m+dp/hard\libc_nano.a(lib_a-closer.o)
                                                  c:/arm_tool/gcc/bin/../lib/gcc/arm-none-eabi/8.2.1/../../../../arm-none-eabi/lib/thumb/v7e-m+dp/hard\libc_nano.a(lib_a-stdio.o)
_ctype_                                           c:/arm_tool/gcc/bin/../lib/gcc/arm-none-eabi/8.2.1/../../../../arm-none-eabi/lib/thumb/v7e-m+dp/hard\libc_nano.a(lib_a-ctype_.o)
                                                  c:/arm_tool/gcc/bin/../lib/gcc/arm-none-eabi/8.2.1/../../../../arm-none-eabi/lib/thumb/v7e-m+dp/hard\libc_nano.a(lib_a-locale.o)
_dtoa_r                                           c:/arm_tool/gcc/bin/../lib/gcc/arm-none-eabi/8.2.1/../../../../arm-none-eabi/lib/thumb/v7e-m+dp/hard\libc_nano.a(lib_a-dtoa.o)
                                                  c:/arm_tool/gcc/bin/../lib/gcc/arm-none-eabi/8.2.1/../../../../arm-none-eabi/lib/thumb/v7e-m+dp/hard\libc_nano.a(lib_a-nano-vfprintf_float.o)
_ebss                                             build/startup_stm32h743xx.o
_edata                                            build/startup_stm32h743xx.o
_estack                                           build/startup_stm32h743xx.o
_exit                                             c:/arm_tool/gcc/bin/../lib/gcc/arm-none-eabi/8.2.1/../../../../arm-none-eabi/lib/thumb/v7e-m+dp/hard\libnosys.a(_exit.o)
                                                  c:/arm_tool/gcc/bin/../lib/gcc/arm-none-eabi/8.2.1/../../../../arm-none-eabi/lib/thumb/v7e-m+dp/hard\libc_nano.a(lib_a-exit.o)
_fflush_r                                         c:/arm_tool/gcc/bin/../lib/gcc/arm-none-eabi/8.2.1/../../../../arm-none-eabi/lib/thumb/v7e-m+dp/hard\libc_nano.a(lib_a-fflush.o)
                                                  c:/arm_tool/gcc/bin/../lib/gcc/arm-none-eabi/8.2.1/../../../../arm-none-eabi/lib/thumb/v7e-m+dp/hard\libc_nano.a(lib_a-fvwrite.o)
                                                  c:/arm_tool/gcc/bin/../lib/gcc/arm-none-eabi/8.2.1/../../../../arm-none-eabi/lib/thumb/v7e-m+dp/hard\libc_nano.a(lib_a-findfp.o)
                                                  c:/arm_tool/gcc/bin/../lib/gcc/arm-none-eabi/8.2.1/../../../../arm-none-eabi/lib/thumb/v7e-m+dp/hard\libc_nano.a(lib_a-wbuf.o)
_fini                                             c:/arm_tool/gcc/bin/../lib/gcc/arm-none-eabi/8.2.1/thumb/v7e-m+dp/hard/crti.o
_free_r                                           c:/arm_tool/gcc/bin/../lib/gcc/arm-none-eabi/8.2.1/../../../../arm-none-eabi/lib/thumb/v7e-m+dp/hard\libc_nano.a(lib_a-nano-freer.o)
                                                  c:/arm_tool/gcc/bin/../lib/gcc/arm-none-eabi/8.2.1/../../../../arm-none-eabi/lib/thumb/v7e-m+dp/hard\libc_nano.a(lib_a-reent.o)
                                                  c:/arm_tool/gcc/bin/../lib/gcc/arm-none-eabi/8.2.1/../../../../arm-none-eabi/lib/thumb/v7e-m+dp/hard\libc_nano.a(lib_a-nano-reallocr.o)
                                                  c:/arm_tool/gcc/bin/../lib/gcc/arm-none-eabi/8.2.1/../../../../arm-none-eabi/lib/thumb/v7e-m+dp/hard\libc_nano.a(lib_a-fvwrite.o)
                                                  c:/arm_tool/gcc/bin/../lib/gcc/arm-none-eabi/8.2.1/../../../../arm-none-eabi/lib/thumb/v7e-m+dp/hard\libc_nano.a(lib_a-malloc.o)
                                                  c:/arm_tool/gcc/bin/../lib/gcc/arm-none-eabi/8.2.1/../../../../arm-none-eabi/lib/thumb/v7e-m+dp/hard\libc_nano.a(lib_a-fflush.o)
                                                  c:/arm_tool/gcc/bin/../lib/gcc/arm-none-eabi/8.2.1/../../../../arm-none-eabi/lib/thumb/v7e-m+dp/hard\libc_nano.a(lib_a-wsetup.o)
_fstat                                            c:/arm_tool/gcc/bin/../lib/gcc/arm-none-eabi/8.2.1/../../../../arm-none-eabi/lib/thumb/v7e-m+dp/hard\libnosys.a(fstat.o)
                                                  c:/arm_tool/gcc/bin/../lib/gcc/arm-none-eabi/8.2.1/../../../../arm-none-eabi/lib/thumb/v7e-m+dp/hard\libc_nano.a(lib_a-fstatr.o)
_fstat_r                                          c:/arm_tool/gcc/bin/../lib/gcc/arm-none-eabi/8.2.1/../../../../arm-none-eabi/lib/thumb/v7e-m+dp/hard\libc_nano.a(lib_a-fstatr.o)
                                                  c:/arm_tool/gcc/bin/../lib/gcc/arm-none-eabi/8.2.1/../../../../arm-none-eabi/lib/thumb/v7e-m+dp/hard\libc_nano.a(lib_a-makebuf.o)
_fwalk                                            c:/arm_tool/gcc/bin/../lib/gcc/arm-none-eabi/8.2.1/../../../../arm-none-eabi/lib/thumb/v7e-m+dp/hard\libc_nano.a(lib_a-fwalk.o)
                                                  c:/arm_tool/gcc/bin/../lib/gcc/arm-none-eabi/8.2.1/../../../../arm-none-eabi/lib/thumb/v7e-m+dp/hard\libc_nano.a(lib_a-findfp.o)
_fwalk_reent                                      c:/arm_tool/gcc/bin/../lib/gcc/arm-none-eabi/8.2.1/../../../../arm-none-eabi/lib/thumb/v7e-m+dp/hard\libc_nano.a(lib_a-fwalk.o)
                                                  c:/arm_tool/gcc/bin/../lib/gcc/arm-none-eabi/8.2.1/../../../../arm-none-eabi/lib/thumb/v7e-m+dp/hard\libc_nano.a(lib_a-findfp.o)
                                                  c:/arm_tool/gcc/bin/../lib/gcc/arm-none-eabi/8.2.1/../../../../arm-none-eabi/lib/thumb/v7e-m+dp/hard\libc_nano.a(lib_a-fflush.o)
_global_impure_ptr                                c:/arm_tool/gcc/bin/../lib/gcc/arm-none-eabi/8.2.1/../../../../arm-none-eabi/lib/thumb/v7e-m+dp/hard\libc_nano.a(lib_a-impure.o)
                                                  c:/arm_tool/gcc/bin/../lib/gcc/arm-none-eabi/8.2.1/../../../../arm-none-eabi/lib/thumb/v7e-m+dp/hard\libc_nano.a(lib_a-findfp.o)
                                                  c:/arm_tool/gcc/bin/../lib/gcc/arm-none-eabi/8.2.1/../../../../arm-none-eabi/lib/thumb/v7e-m+dp/hard\libc_nano.a(lib_a-fflush.o)
                                                  c:/arm_tool/gcc/bin/../lib/gcc/arm-none-eabi/8.2.1/../../../../arm-none-eabi/lib/thumb/v7e-m+dp/hard\libc_nano.a(lib_a-exit.o)
_impure_ptr                                       c:/arm_tool/gcc/bin/../lib/gcc/arm-none-eabi/8.2.1/../../../../arm-none-eabi/lib/thumb/v7e-m+dp/hard\libc_nano.a(lib_a-impure.o)
                                                  c:/arm_tool/gcc/bin/../lib/gcc/arm-none-eabi/8.2.1/../../../../arm-none-eabi/lib/thumb/v7e-m+dp/hard\libc_nano.a(lib_a-reent.o)
                                                  c:/arm_tool/gcc/bin/../lib/gcc/arm-none-eabi/8.2.1/../../../../arm-none-eabi/lib/thumb/v7e-m+dp/hard\libc_nano.a(lib_a-locale.o)
                                                  c:/arm_tool/gcc/bin/../lib/gcc/arm-none-eabi/8.2.1/../../../../arm-none-eabi/lib/thumb/v7e-m+dp/hard\libc_nano.a(lib_a-putc.o)
                                                  c:/arm_tool/gcc/bin/../lib/gcc/arm-none-eabi/8.2.1/../../../../arm-none-eabi/lib/thumb/v7e-m+dp/hard\libc_nano.a(lib_a-nano-vfprintf.o)
                                                  c:/arm_tool/gcc/bin/../lib/gcc/arm-none-eabi/8.2.1/../../../../arm-none-eabi/lib/thumb/v7e-m+dp/hard\libc_nano.a(lib_a-malloc.o)
                                                  c:/arm_tool/gcc/bin/../lib/gcc/arm-none-eabi/8.2.1/../../../../arm-none-eabi/lib/thumb/v7e-m+dp/hard\libc_nano.a(lib_a-findfp.o)
                                                  c:/arm_tool/gcc/bin/../lib/gcc/arm-none-eabi/8.2.1/../../../../arm-none-eabi/lib/thumb/v7e-m+dp/hard\libc_nano.a(lib_a-fflush.o)
                                                  c:/arm_tool/gcc/bin/../lib/gcc/arm-none-eabi/8.2.1/../../../../arm-none-eabi/lib/thumb/v7e-m+dp/hard\libc_nano.a(lib_a-wsetup.o)
                                                  c:/arm_tool/gcc/bin/../lib/gcc/arm-none-eabi/8.2.1/../../../../arm-none-eabi/lib/thumb/v7e-m+dp/hard\libc_nano.a(lib_a-wbuf.o)
                                                  c:/arm_tool/gcc/bin/../lib/gcc/arm-none-eabi/8.2.1/../../../../arm-none-eabi/lib/thumb/v7e-m+dp/hard\libc_nano.a(lib_a-puts.o)
                                                  c:/arm_tool/gcc/bin/../lib/gcc/arm-none-eabi/8.2.1/../../../../arm-none-eabi/lib/thumb/v7e-m+dp/hard\libc_nano.a(lib_a-putchar.o)
                                                  c:/arm_tool/gcc/bin/../lib/gcc/arm-none-eabi/8.2.1/../../../../arm-none-eabi/lib/thumb/v7e-m+dp/hard\libc_nano.a(lib_a-printf.o)
_init                                             c:/arm_tool/gcc/bin/../lib/gcc/arm-none-eabi/8.2.1/thumb/v7e-m+dp/hard/crti.o
                                                  c:/arm_tool/gcc/bin/../lib/gcc/arm-none-eabi/8.2.1/../../../../arm-none-eabi/lib/thumb/v7e-m+dp/hard\libc_nano.a(lib_a-init.o)
_iprintf_r                                        c:/arm_tool/gcc/bin/../lib/gcc/arm-none-eabi/8.2.1/../../../../arm-none-eabi/lib/thumb/v7e-m+dp/hard\libc_nano.a(lib_a-printf.o)
_isatty                                           c:/arm_tool/gcc/bin/../lib/gcc/arm-none-eabi/8.2.1/../../../../arm-none-eabi/lib/thumb/v7e-m+dp/hard\libnosys.a(isatty.o)
                                                  c:/arm_tool/gcc/bin/../lib/gcc/arm-none-eabi/8.2.1/../../../../arm-none-eabi/lib/thumb/v7e-m+dp/hard\libc_nano.a(lib_a-isattyr.o)
_isatty_r                                         c:/arm_tool/gcc/bin/../lib/gcc/arm-none-eabi/8.2.1/../../../../arm-none-eabi/lib/thumb/v7e-m+dp/hard\libc_nano.a(lib_a-isattyr.o)
                                                  c:/arm_tool/gcc/bin/../lib/gcc/arm-none-eabi/8.2.1/../../../../arm-none-eabi/lib/thumb/v7e-m+dp/hard\libc_nano.a(lib_a-makebuf.o)
_localeconv_r                                     c:/arm_tool/gcc/bin/../lib/gcc/arm-none-eabi/8.2.1/../../../../arm-none-eabi/lib/thumb/v7e-m+dp/hard\libc_nano.a(lib_a-localeconv.o)
                                                  c:/arm_tool/gcc/bin/../lib/gcc/arm-none-eabi/8.2.1/../../../../arm-none-eabi/lib/thumb/v7e-m+dp/hard\libc_nano.a(lib_a-nano-vfprintf_float.o)
_lseek                                            c:/arm_tool/gcc/bin/../lib/gcc/arm-none-eabi/8.2.1/../../../../arm-none-eabi/lib/thumb/v7e-m+dp/hard\libnosys.a(lseek.o)
                                                  c:/arm_tool/gcc/bin/../lib/gcc/arm-none-eabi/8.2.1/../../../../arm-none-eabi/lib/thumb/v7e-m+dp/hard\libc_nano.a(lib_a-lseekr.o)
_lseek_r                                          c:/arm_tool/gcc/bin/../lib/gcc/arm-none-eabi/8.2.1/../../../../arm-none-eabi/lib/thumb/v7e-m+dp/hard\libc_nano.a(lib_a-lseekr.o)
                                                  c:/arm_tool/gcc/bin/../lib/gcc/arm-none-eabi/8.2.1/../../../../arm-none-eabi/lib/thumb/v7e-m+dp/hard\libc_nano.a(lib_a-stdio.o)
_mainCRTStartup                                   c:/arm_tool/gcc/bin/../lib/gcc/arm-none-eabi/8.2.1/../../../../arm-none-eabi/lib/thumb/v7e-m+dp/hard/crt0.o
_malloc_r                                         c:/arm_tool/gcc/bin/../lib/gcc/arm-none-eabi/8.2.1/../../../../arm-none-eabi/lib/thumb/v7e-m+dp/hard\libc_nano.a(lib_a-nano-mallocr.o)
                                                  c:/arm_tool/gcc/bin/../lib/gcc/arm-none-eabi/8.2.1/../../../../arm-none-eabi/lib/thumb/v7e-m+dp/hard\libc_nano.a(lib_a-nano-reallocr.o)
                                                  c:/arm_tool/gcc/bin/../lib/gcc/arm-none-eabi/8.2.1/../../../../arm-none-eabi/lib/thumb/v7e-m+dp/hard\libc_nano.a(lib_a-fvwrite.o)
                                                  c:/arm_tool/gcc/bin/../lib/gcc/arm-none-eabi/8.2.1/../../../../arm-none-eabi/lib/thumb/v7e-m+dp/hard\libc_nano.a(lib_a-nano-callocr.o)
                                                  c:/arm_tool/gcc/bin/../lib/gcc/arm-none-eabi/8.2.1/../../../../arm-none-eabi/lib/thumb/v7e-m+dp/hard\libc_nano.a(lib_a-malloc.o)
                                                  c:/arm_tool/gcc/bin/../lib/gcc/arm-none-eabi/8.2.1/../../../../arm-none-eabi/lib/thumb/v7e-m+dp/hard\libc_nano.a(lib_a-makebuf.o)
                                                  c:/arm_tool/gcc/bin/../lib/gcc/arm-none-eabi/8.2.1/../../../../arm-none-eabi/lib/thumb/v7e-m+dp/hard\libc_nano.a(lib_a-findfp.o)
_malloc_usable_size_r                             c:/arm_tool/gcc/bin/../lib/gcc/arm-none-eabi/8.2.1/../../../../arm-none-eabi/lib/thumb/v7e-m+dp/hard\libc_nano.a(lib_a-nano-msizer.o)
                                                  c:/arm_tool/gcc/bin/../lib/gcc/arm-none-eabi/8.2.1/../../../../arm-none-eabi/lib/thumb/v7e-m+dp/hard\libc_nano.a(lib_a-nano-reallocr.o)
_mbtowc_r                                         c:/arm_tool/gcc/bin/../lib/gcc/arm-none-eabi/8.2.1/../../../../arm-none-eabi/lib/thumb/v7e-m+dp/hard\libc_nano.a(lib_a-mbtowc_r.o)
_mprec_log10                                      c:/arm_tool/gcc/bin/../lib/gcc/arm-none-eabi/8.2.1/../../../../arm-none-eabi/lib/thumb/v7e-m+dp/hard\libc_nano.a(lib_a-mprec.o)
_printf_common                                    c:/arm_tool/gcc/bin/../lib/gcc/arm-none-eabi/8.2.1/../../../../arm-none-eabi/lib/thumb/v7e-m+dp/hard\libc_nano.a(lib_a-nano-vfprintf_i.o)
                                                  c:/arm_tool/gcc/bin/../lib/gcc/arm-none-eabi/8.2.1/../../../../arm-none-eabi/lib/thumb/v7e-m+dp/hard\libc_nano.a(lib_a-nano-vfprintf_float.o)
_printf_float                                     c:/arm_tool/gcc/bin/../lib/gcc/arm-none-eabi/8.2.1/../../../../arm-none-eabi/lib/thumb/v7e-m+dp/hard\libc_nano.a(lib_a-nano-vfprintf_float.o)
                                                  c:/arm_tool/gcc/bin/../lib/gcc/arm-none-eabi/8.2.1/../../../../arm-none-eabi/lib/thumb/v7e-m+dp/hard\libc_nano.a(lib_a-nano-vfprintf.o)
_printf_i                                         c:/arm_tool/gcc/bin/../lib/gcc/arm-none-eabi/8.2.1/../../../../arm-none-eabi/lib/thumb/v7e-m+dp/hard\libc_nano.a(lib_a-nano-vfprintf_i.o)
                                                  c:/arm_tool/gcc/bin/../lib/gcc/arm-none-eabi/8.2.1/../../../../arm-none-eabi/lib/thumb/v7e-m+dp/hard\libc_nano.a(lib_a-nano-vfprintf.o)
_printf_r                                         c:/arm_tool/gcc/bin/../lib/gcc/arm-none-eabi/8.2.1/../../../../arm-none-eabi/lib/thumb/v7e-m+dp/hard\libc_nano.a(lib_a-printf.o)
_putc_r                                           c:/arm_tool/gcc/bin/../lib/gcc/arm-none-eabi/8.2.1/../../../../arm-none-eabi/lib/thumb/v7e-m+dp/hard\libc_nano.a(lib_a-putc.o)
                                                  c:/arm_tool/gcc/bin/../lib/gcc/arm-none-eabi/8.2.1/../../../../arm-none-eabi/lib/thumb/v7e-m+dp/hard\libc_nano.a(lib_a-putchar.o)
_putchar_r                                        c:/arm_tool/gcc/bin/../lib/gcc/arm-none-eabi/8.2.1/../../../../arm-none-eabi/lib/thumb/v7e-m+dp/hard\libc_nano.a(lib_a-putchar.o)
_puts_r                                           c:/arm_tool/gcc/bin/../lib/gcc/arm-none-eabi/8.2.1/../../../../arm-none-eabi/lib/thumb/v7e-m+dp/hard\libc_nano.a(lib_a-puts.o)
_read                                             c:/arm_tool/gcc/bin/../lib/gcc/arm-none-eabi/8.2.1/../../../../arm-none-eabi/lib/thumb/v7e-m+dp/hard\libnosys.a(read.o)
                                                  c:/arm_tool/gcc/bin/../lib/gcc/arm-none-eabi/8.2.1/../../../../arm-none-eabi/lib/thumb/v7e-m+dp/hard\libc_nano.a(lib_a-readr.o)
_read_r                                           c:/arm_tool/gcc/bin/../lib/gcc/arm-none-eabi/8.2.1/../../../../arm-none-eabi/lib/thumb/v7e-m+dp/hard\libc_nano.a(lib_a-readr.o)
                                                  c:/arm_tool/gcc/bin/../lib/gcc/arm-none-eabi/8.2.1/../../../../arm-none-eabi/lib/thumb/v7e-m+dp/hard\libc_nano.a(lib_a-stdio.o)
_realloc_r                                        c:/arm_tool/gcc/bin/../lib/gcc/arm-none-eabi/8.2.1/../../../../arm-none-eabi/lib/thumb/v7e-m+dp/hard\libc_nano.a(lib_a-nano-reallocr.o)
                                                  c:/arm_tool/gcc/bin/../lib/gcc/arm-none-eabi/8.2.1/../../../../arm-none-eabi/lib/thumb/v7e-m+dp/hard\libc_nano.a(lib_a-fvwrite.o)
_reclaim_reent                                    c:/arm_tool/gcc/bin/../lib/gcc/arm-none-eabi/8.2.1/../../../../arm-none-eabi/lib/thumb/v7e-m+dp/hard\libc_nano.a(lib_a-reent.o)
_sbrk                                             c:/arm_tool/gcc/bin/../lib/gcc/arm-none-eabi/8.2.1/../../../../arm-none-eabi/lib/thumb/v7e-m+dp/hard\libnosys.a(sbrk.o)
                                                  c:/arm_tool/gcc/bin/../lib/gcc/arm-none-eabi/8.2.1/../../../../arm-none-eabi/lib/thumb/v7e-m+dp/hard\libc_nano.a(lib_a-sbrkr.o)
_sbrk_r                                           c:/arm_tool/gcc/bin/../lib/gcc/arm-none-eabi/8.2.1/../../../../arm-none-eabi/lib/thumb/v7e-m+dp/hard\libc_nano.a(lib_a-sbrkr.o)
                                                  c:/arm_tool/gcc/bin/../lib/gcc/arm-none-eabi/8.2.1/../../../../arm-none-eabi/lib/thumb/v7e-m+dp/hard\libc_nano.a(lib_a-nano-mallocr.o)
_sbss                                             build/startup_stm32h743xx.o
_sdata                                            build/startup_stm32h743xx.o
_setlocale_r                                      c:/arm_tool/gcc/bin/../lib/gcc/arm-none-eabi/8.2.1/../../../../arm-none-eabi/lib/thumb/v7e-m+dp/hard\libc_nano.a(lib_a-locale.o)
_sidata                                           build/startup_stm32h743xx.o
_start                                            c:/arm_tool/gcc/bin/../lib/gcc/arm-none-eabi/8.2.1/../../../../arm-none-eabi/lib/thumb/v7e-m+dp/hard/crt0.o
_vfiprintf_r                                      c:/arm_tool/gcc/bin/../lib/gcc/arm-none-eabi/8.2.1/../../../../arm-none-eabi/lib/thumb/v7e-m+dp/hard\libc_nano.a(lib_a-nano-vfprintf.o)
_vfprintf_r                                       c:/arm_tool/gcc/bin/../lib/gcc/arm-none-eabi/8.2.1/../../../../arm-none-eabi/lib/thumb/v7e-m+dp/hard\libc_nano.a(lib_a-nano-vfprintf.o)
                                                  c:/arm_tool/gcc/bin/../lib/gcc/arm-none-eabi/8.2.1/../../../../arm-none-eabi/lib/thumb/v7e-m+dp/hard\libc_nano.a(lib_a-printf.o)
_wctomb_r                                         c:/arm_tool/gcc/bin/../lib/gcc/arm-none-eabi/8.2.1/../../../../arm-none-eabi/lib/thumb/v7e-m+dp/hard\libc_nano.a(lib_a-wctomb_r.o)
_write                                            build/retarget.o
                                                  c:/arm_tool/gcc/bin/../lib/gcc/arm-none-eabi/8.2.1/../../../../arm-none-eabi/lib/thumb/v7e-m+dp/hard\libc_nano.a(lib_a-writer.o)
_write_r                                          c:/arm_tool/gcc/bin/../lib/gcc/arm-none-eabi/8.2.1/../../../../arm-none-eabi/lib/thumb/v7e-m+dp/hard\libc_nano.a(lib_a-writer.o)
                                                  c:/arm_tool/gcc/bin/../lib/gcc/arm-none-eabi/8.2.1/../../../../arm-none-eabi/lib/thumb/v7e-m+dp/hard\libc_nano.a(lib_a-stdio.o)
atexit                                            c:/arm_tool/gcc/bin/../lib/gcc/arm-none-eabi/8.2.1/../../../../arm-none-eabi/lib/thumb/v7e-m+dp/hard/crt0.o
bluetooth                                         build/radio_button.o
                                                  build/terminal_graphics.o
buf                                               build/retarget.o
buff                                              build/terminal_graphics.o
cleanup_glue                                      c:/arm_tool/gcc/bin/../lib/gcc/arm-none-eabi/8.2.1/../../../../arm-none-eabi/lib/thumb/v7e-m+dp/hard\libc_nano.a(lib_a-reent.o)
console_key                                       build/main.o
counter                                           build/retarget.o
cursor                                            build/cursor.o
                                                  build/radio_button.o
                                                  build/terminal_graphics.o
cursor_save                                       build/cursor.o
cursor_set                                        build/cursor.o
                                                  build/radio_button.o
cursor_update                                     build/cursor.o
                                                  build/terminal_graphics.o
dev_stat                                          build/esc_codes.o
                                                  build/esq_seq.o
down                                              build/esc_codes.o
                                                  build/esq_seq.o
end                                               c:/arm_tool/gcc/bin/../lib/gcc/arm-none-eabi/8.2.1/../../../../arm-none-eabi/lib/thumb/v7e-m+dp/hard\libnosys.a(sbrk.o)
errno                                             c:/arm_tool/gcc/bin/../lib/gcc/arm-none-eabi/8.2.1/../../../../arm-none-eabi/lib/thumb/v7e-m+dp/hard\libc_nano.a(lib_a-reent.o)
                                                  c:/arm_tool/gcc/bin/../lib/gcc/arm-none-eabi/8.2.1/../../../../arm-none-eabi/lib/thumb/v7e-m+dp/hard\libnosys.a(read.o)
                                                  c:/arm_tool/gcc/bin/../lib/gcc/arm-none-eabi/8.2.1/../../../../arm-none-eabi/lib/thumb/v7e-m+dp/hard\libnosys.a(lseek.o)
                                                  c:/arm_tool/gcc/bin/../lib/gcc/arm-none-eabi/8.2.1/../../../../arm-none-eabi/lib/thumb/v7e-m+dp/hard\libnosys.a(isatty.o)
                                                  c:/arm_tool/gcc/bin/../lib/gcc/arm-none-eabi/8.2.1/../../../../arm-none-eabi/lib/thumb/v7e-m+dp/hard\libnosys.a(fstat.o)
                                                  c:/arm_tool/gcc/bin/../lib/gcc/arm-none-eabi/8.2.1/../../../../arm-none-eabi/lib/thumb/v7e-m+dp/hard\libnosys.a(close.o)
                                                  c:/arm_tool/gcc/bin/../lib/gcc/arm-none-eabi/8.2.1/../../../../arm-none-eabi/lib/thumb/v7e-m+dp/hard\libc_nano.a(lib_a-readr.o)
                                                  c:/arm_tool/gcc/bin/../lib/gcc/arm-none-eabi/8.2.1/../../../../arm-none-eabi/lib/thumb/v7e-m+dp/hard\libc_nano.a(lib_a-lseekr.o)
                                                  c:/arm_tool/gcc/bin/../lib/gcc/arm-none-eabi/8.2.1/../../../../arm-none-eabi/lib/thumb/v7e-m+dp/hard\libc_nano.a(lib_a-isattyr.o)
                                                  c:/arm_tool/gcc/bin/../lib/gcc/arm-none-eabi/8.2.1/../../../../arm-none-eabi/lib/thumb/v7e-m+dp/hard\libc_nano.a(lib_a-fstatr.o)
                                                  c:/arm_tool/gcc/bin/../lib/gcc/arm-none-eabi/8.2.1/../../../../arm-none-eabi/lib/thumb/v7e-m+dp/hard\libc_nano.a(lib_a-closer.o)
                                                  c:/arm_tool/gcc/bin/../lib/gcc/arm-none-eabi/8.2.1/../../../../arm-none-eabi/lib/thumb/v7e-m+dp/hard\libc_nano.a(lib_a-writer.o)
                                                  c:/arm_tool/gcc/bin/../lib/gcc/arm-none-eabi/8.2.1/../../../../arm-none-eabi/lib/thumb/v7e-m+dp/hard\libc_nano.a(lib_a-sbrkr.o)
esc_seq                                           build/esq_seq.o
                                                  build/terminal_graphics.o
esc_seq_buff                                      build/esq_seq.o
                                                  build/terminal_graphics.o
esc_seq_clear                                     build/esq_seq.o
                                                  build/terminal_graphics.o
esc_seq_iter                                      build/esq_seq.o
                                                  build/terminal_graphics.o
esc_seq_search                                    build/esq_seq.o
                                                  build/terminal_graphics.o
exit                                              c:/arm_tool/gcc/bin/../lib/gcc/arm-none-eabi/8.2.1/../../../../arm-none-eabi/lib/thumb/v7e-m+dp/hard\libc_nano.a(lib_a-exit.o)
                                                  c:/arm_tool/gcc/bin/../lib/gcc/arm-none-eabi/8.2.1/../../../../arm-none-eabi/lib/thumb/v7e-m+dp/hard/crt0.o
f1                                                build/esc_codes.o
                                                  build/esq_seq.o
f2                                                build/esc_codes.o
                                                  build/esq_seq.o
f3                                                build/esc_codes.o
                                                  build/esq_seq.o
f4                                                build/esc_codes.o
                                                  build/esq_seq.o
f5                                                build/esc_codes.o
                                                  build/esq_seq.o
f6                                                build/esc_codes.o
                                                  build/esq_seq.o
f7                                                build/esc_codes.o
                                                  build/esq_seq.o
f8                                                build/esc_codes.o
                                                  build/esq_seq.o
fflush                                            c:/arm_tool/gcc/bin/../lib/gcc/arm-none-eabi/8.2.1/../../../../arm-none-eabi/lib/thumb/v7e-m+dp/hard\libc_nano.a(lib_a-fflush.o)
free                                              c:/arm_tool/gcc/bin/../lib/gcc/arm-none-eabi/8.2.1/../../../../arm-none-eabi/lib/thumb/v7e-m+dp/hard\libc_nano.a(lib_a-malloc.o)
g_pfnVectors                                      build/startup_stm32h743xx.o
hUsbDeviceFS                                      build/usb_device.o
                                                  build/usbd_cdc_if.o
hUsbDeviceHS                                      build/usb_device.o
                                                  build/usbd_cdc_if.o
hardware_init_hook                                c:/arm_tool/gcc/bin/../lib/gcc/arm-none-eabi/8.2.1/../../../../arm-none-eabi/lib/thumb/v7e-m+dp/hard/crt0.o
hdcmi                                             build/dcmi.o
                                                  build/stm32h7xx_it.o
                                                  build/main.o
hdma_dcmi                                         build/dcmi.o
                                                  build/stm32h7xx_it.o
hdma_usart3_rx                                    build/usart.o
                                                  build/stm32h7xx_it.o
hdma_usart3_tx                                    build/usart.o
                                                  build/stm32h7xx_it.o
hpcd_USB_OTG_FS                                   build/usbd_conf.o
                                                  build/stm32h7xx_it.o
hpcd_USB_OTG_HS                                   build/usbd_conf.o
                                                  build/stm32h7xx_it.o
hrng                                              build/rng.o
huart3                                            build/usart.o
                                                  build/retarget.o
                                                  build/stm32h7xx_it.o
                                                  build/main.o
huvc                                              build/usbd_uvc.o
init_pix_table                                    build/main.o
iprintf                                           c:/arm_tool/gcc/bin/../lib/gcc/arm-none-eabi/8.2.1/../../../../arm-none-eabi/lib/thumb/v7e-m+dp/hard\libc_nano.a(lib_a-printf.o)
label_debug                                       build/radio_button.o
                                                  build/terminal_graphics.o
label_draw                                        build/radio_button.o
                                                  build/terminal_graphics.o
left                                              build/esc_codes.o
                                                  build/esq_seq.o
localeconv                                        c:/arm_tool/gcc/bin/../lib/gcc/arm-none-eabi/8.2.1/../../../../arm-none-eabi/lib/thumb/v7e-m+dp/hard\libc_nano.a(lib_a-localeconv.o)
main                                              build/main.o
                                                  build/startup_stm32h743xx.o
                                                  c:/arm_tool/gcc/bin/../lib/gcc/arm-none-eabi/8.2.1/../../../../arm-none-eabi/lib/thumb/v7e-m+dp/hard/crt0.o
malloc                                            c:/arm_tool/gcc/bin/../lib/gcc/arm-none-eabi/8.2.1/../../../../arm-none-eabi/lib/thumb/v7e-m+dp/hard\libc_nano.a(lib_a-malloc.o)
                                                  c:/arm_tool/gcc/bin/../lib/gcc/arm-none-eabi/8.2.1/../../../../arm-none-eabi/lib/thumb/v7e-m+dp/hard\libc_nano.a(lib_a-mprec.o)
                                                  c:/arm_tool/gcc/bin/../lib/gcc/arm-none-eabi/8.2.1/../../../../arm-none-eabi/lib/thumb/v7e-m+dp/hard\libc_nano.a(lib_a-dtoa.o)
memchr                                            c:/arm_tool/gcc/bin/../lib/gcc/arm-none-eabi/8.2.1/../../../../arm-none-eabi/lib/thumb/v7e-m+dp/hard\libc_nano.a(lib_a-memchr.o)
                                                  c:/arm_tool/gcc/bin/../lib/gcc/arm-none-eabi/8.2.1/../../../../arm-none-eabi/lib/thumb/v7e-m+dp/hard\libc_nano.a(lib_a-fvwrite.o)
                                                  c:/arm_tool/gcc/bin/../lib/gcc/arm-none-eabi/8.2.1/../../../../arm-none-eabi/lib/thumb/v7e-m+dp/hard\libc_nano.a(lib_a-nano-vfprintf.o)
                                                  c:/arm_tool/gcc/bin/../lib/gcc/arm-none-eabi/8.2.1/../../../../arm-none-eabi/lib/thumb/v7e-m+dp/hard\libc_nano.a(lib_a-nano-vfprintf_i.o)
memcpy                                            c:/arm_tool/gcc/bin/../lib/gcc/arm-none-eabi/8.2.1/../../../../arm-none-eabi/lib/thumb/v7e-m+dp/hard\libc_nano.a(lib_a-memcpy-stub.o)
                                                  c:/arm_tool/gcc/bin/../lib/gcc/arm-none-eabi/8.2.1/../../../../arm-none-eabi/lib/thumb/v7e-m+dp/hard\libc_nano.a(lib_a-nano-reallocr.o)
                                                  c:/arm_tool/gcc/bin/../lib/gcc/arm-none-eabi/8.2.1/../../../../arm-none-eabi/lib/thumb/v7e-m+dp/hard\libc_nano.a(lib_a-fvwrite.o)
                                                  c:/arm_tool/gcc/bin/../lib/gcc/arm-none-eabi/8.2.1/../../../../arm-none-eabi/lib/thumb/v7e-m+dp/hard\libc_nano.a(lib_a-mprec.o)
                                                  c:/arm_tool/gcc/bin/../lib/gcc/arm-none-eabi/8.2.1/../../../../arm-none-eabi/lib/thumb/v7e-m+dp/hard\libc_nano.a(lib_a-dtoa.o)
memmove                                           c:/arm_tool/gcc/bin/../lib/gcc/arm-none-eabi/8.2.1/../../../../arm-none-eabi/lib/thumb/v7e-m+dp/hard\libc_nano.a(lib_a-memmove.o)
                                                  c:/arm_tool/gcc/bin/../lib/gcc/arm-none-eabi/8.2.1/../../../../arm-none-eabi/lib/thumb/v7e-m+dp/hard\libc_nano.a(lib_a-fvwrite.o)
memset                                            c:/arm_tool/gcc/bin/../lib/gcc/arm-none-eabi/8.2.1/../../../../arm-none-eabi/lib/thumb/v7e-m+dp/hard\libc_nano.a(lib_a-memset.o)
                                                  c:/arm_tool/gcc/bin/../lib/gcc/arm-none-eabi/8.2.1/../../../../arm-none-eabi/lib/thumb/v7e-m+dp/hard\libc_nano.a(lib_a-nano-callocr.o)
                                                  c:/arm_tool/gcc/bin/../lib/gcc/arm-none-eabi/8.2.1/../../../../arm-none-eabi/lib/thumb/v7e-m+dp/hard\libc_nano.a(lib_a-findfp.o)
                                                  build/rng.o
                                                  build/usbd_conf.o
                                                  build/usart.o
                                                  build/main.o
                                                  c:/arm_tool/gcc/bin/../lib/gcc/arm-none-eabi/8.2.1/../../../../arm-none-eabi/lib/thumb/v7e-m+dp/hard/crt0.o
next                                              build/radio_button.o
                                                  build/terminal_graphics.o
pFlash                                            build/stm32h7xx_hal_flash.o
                                                  build/stm32h7xx_hal_flash_ex.o
pal_b                                             build/main.o
pal_g                                             build/main.o
pal_ib                                            build/main.o
pal_ig                                            build/main.o
pal_ir                                            build/main.o
pal_r                                             build/main.o
pix_b                                             build/main.o
pix_g                                             build/main.o
pix_i                                             build/main.o
pix_r                                             build/main.o
prev                                              build/radio_button.o
                                                  build/terminal_graphics.o
printf                                            c:/arm_tool/gcc/bin/../lib/gcc/arm-none-eabi/8.2.1/../../../../arm-none-eabi/lib/thumb/v7e-m+dp/hard\libc_nano.a(lib_a-printf.o)
                                                  build/cursor.o
                                                  build/radio_button.o
                                                  build/terminal_graphics.o
                                                  build/main.o
printf_flush                                      build/retarget.o
                                                  build/main.o
putc                                              c:/arm_tool/gcc/bin/../lib/gcc/arm-none-eabi/8.2.1/../../../../arm-none-eabi/lib/thumb/v7e-m+dp/hard\libc_nano.a(lib_a-putc.o)
putchar                                           c:/arm_tool/gcc/bin/../lib/gcc/arm-none-eabi/8.2.1/../../../../arm-none-eabi/lib/thumb/v7e-m+dp/hard\libc_nano.a(lib_a-putchar.o)
                                                  build/terminal_graphics.o
puts                                              c:/arm_tool/gcc/bin/../lib/gcc/arm-none-eabi/8.2.1/../../../../arm-none-eabi/lib/thumb/v7e-m+dp/hard\libc_nano.a(lib_a-puts.o)
                                                  build/radio_button.o
                                                  build/terminal_graphics.o
                                                  build/main.o
radbtn_check                                      build/radio_button.o
                                                  build/terminal_graphics.o
radbtn_draw                                       build/radio_button.o
radbtn_led                                        build/radio_button.o
                                                  build/terminal_graphics.o
radbtn_toggle                                     build/radio_button.o
radbtn_update                                     build/radio_button.o
                                                  build/terminal_graphics.o
reboot                                            build/radio_button.o
                                                  build/terminal_graphics.o
right                                             build/esc_codes.o
                                                  build/esq_seq.o
rx                                                build/main.o
setlocale                                         c:/arm_tool/gcc/bin/../lib/gcc/arm-none-eabi/8.2.1/../../../../arm-none-eabi/lib/thumb/v7e-m+dp/hard\libc_nano.a(lib_a-locale.o)
settings_flag                                     build/main.o
software_init_hook                                c:/arm_tool/gcc/bin/../lib/gcc/arm-none-eabi/8.2.1/../../../../arm-none-eabi/lib/thumb/v7e-m+dp/hard/crt0.o
strcmp                                            c:/arm_tool/gcc/bin/../lib/gcc/arm-none-eabi/8.2.1/../../../../arm-none-eabi/lib/thumb/v7e-m+dp/hard\libc_nano.a(lib_a-strcmp.o)
                                                  c:/arm_tool/gcc/bin/../lib/gcc/arm-none-eabi/8.2.1/../../../../arm-none-eabi/lib/thumb/v7e-m+dp/hard\libc_nano.a(lib_a-locale.o)
                                                  build/esq_seq.o
strlen                                            c:/arm_tool/gcc/bin/../lib/gcc/arm-none-eabi/8.2.1/../../../../arm-none-eabi/lib/thumb/v7e-m+dp/hard\libc_nano.a(lib_a-strlen.o)
                                                  c:/arm_tool/gcc/bin/../lib/gcc/arm-none-eabi/8.2.1/../../../../arm-none-eabi/lib/thumb/v7e-m+dp/hard\libc_nano.a(lib_a-nano-vfprintf_float.o)
terminal_basement                                 build/terminal_graphics.o
terminal_body                                     build/terminal_graphics.o
terminal_callback                                 build/terminal_graphics.o
terminal_cursor                                   build/terminal_graphics.o
terminal_frame                                    build/terminal_graphics.o
terminal_header                                   build/terminal_graphics.o
terminal_init                                     build/terminal_graphics.o
terminal_redraw                                   build/terminal_graphics.o
terminal_status                                   build/terminal_graphics.o
                                                  build/esq_seq.o
terminal_update                                   build/terminal_graphics.o
ucv_buf                                           build/main.o
                                                  build/usbd_uvc_if.o
up                                                build/esc_codes.o
                                                  build/esq_seq.o
uvc_wait_cnt                                      build/usbd_uvc_if.o
                                                  build/main.o
uvc_wait_flag                                     build/esc_codes.o
                                                  build/radio_button.o
                                                  build/terminal_graphics.o
                                                  build/esq_seq.o
                                                  build/retarget.o
                                                  build/dcmi.o
                                                  build/rng.o
                                                  build/usbd_uvc_if.o
                                                  build/usbd_uvc.o
                                                  build/dma.o
                                                  build/usbd_cdc.o
                                                  build/usbd_ioreq.o
                                                  build/usbd_ctlreq.o
                                                  build/usbd_core.o
                                                  build/usbd_conf.o
                                                  build/usbd_cdc_if.o
                                                  build/usbd_desc.o
                                                  build/usb_device.o
                                                  build/stm32h7xx_hal_msp.o
                                                  build/stm32h7xx_it.o
                                                  build/usart.o
                                                  build/gpio.o
                                                  build/main.o
uwTick                                            build/stm32h7xx_hal.o
uwTickFreq                                        build/stm32h7xx_hal.o
uwTickPrio                                        build/stm32h7xx_hal.o
                                                  build/stm32h7xx_hal_rcc.o
vfiprintf                                         c:/arm_tool/gcc/bin/../lib/gcc/arm-none-eabi/8.2.1/../../../../arm-none-eabi/lib/thumb/v7e-m+dp/hard\libc_nano.a(lib_a-nano-vfprintf.o)
vfprintf                                          c:/arm_tool/gcc/bin/../lib/gcc/arm-none-eabi/8.2.1/../../../../arm-none-eabi/lib/thumb/v7e-m+dp/hard\libc_nano.a(lib_a-nano-vfprintf.o)
videoCommitControl                                build/usbd_uvc.o
videoProbeControl                                 build/usbd_uvc.o
wait_cnt                                          build/usbd_uvc_if.o
zx_buf                                            build/main.o
zx_copy_pix                                       build/main.o
zx_pix_tab                                        build/main.o
